

Microchip Technology PIC18 LITE Macro Assembler V1.45 build -152302408 
                                                                                               Mon Dec 10 10:17:30 2018

Microchip Technology Omniscient Code Generator v1.45 (Free mode) build 201711160504
     1                           	processor	18F46J50
     2                           	fnconf	rparam,??,?,0
     3                           	opt	pw 120
     4                           	opt	lm
     5                           	psect	smallconst,global,reloc=2,class=SMALLCONST,delta=1,noexec
     6                           	psect	_FlashSignatureWord_const,global,ovrld,reloc=2,class=CODE,delta=1,noexec
     7                           	psect	cinit,global,reloc=2,class=CODE,delta=1
     8                           	psect	bssCOMRAM,global,class=COMRAM,space=1,delta=1,noexec
     9                           	psect	bssBANK0,global,class=BANK0,space=1,delta=1,lowdata,noexec
    10                           	psect	bssBIGRAMh,global,class=BIGRAM,space=1,delta=1,lowdata,noexec
    11                           	psect	cstackCOMRAM,global,class=COMRAM,space=1,delta=1,noexec
    12                           	psect	text0,global,reloc=2,class=CODE,delta=1
    13                           	psect	_BootMain_text,global,ovrld,reloc=2,class=CODE,delta=1
    14                           	psect	text2,global,reloc=2,class=CODE,delta=1
    15                           	psect	text3,global,reloc=2,class=CODE,delta=1
    16                           	psect	text4,global,reloc=2,class=CODE,delta=1
    17                           	psect	text5,global,reloc=2,class=CODE,delta=1
    18                           	psect	text6,global,reloc=2,class=CODE,delta=1
    19                           	psect	text7,global,reloc=2,class=CODE,delta=1
    20                           	psect	text8,global,reloc=2,class=CODE,delta=1
    21                           	psect	text9,global,reloc=2,class=CODE,delta=1
    22                           	psect	text10,global,reloc=2,class=CODE,delta=1
    23                           	psect	text11,global,reloc=2,class=CODE,delta=1
    24                           	psect	text12,global,reloc=2,class=CODE,delta=1
    25                           	psect	text13,global,reloc=2,class=CODE,delta=1
    26                           	psect	text14,global,reloc=2,class=CODE,delta=1
    27                           	psect	text15,global,reloc=2,class=CODE,delta=1
    28                           	psect	text16,global,reloc=2,class=CODE,delta=1
    29                           	psect	text17,global,reloc=2,class=CODE,delta=1
    30                           	psect	text18,global,reloc=2,class=CODE,delta=1
    31                           	psect	text19,global,reloc=2,class=CODE,delta=1
    32                           	psect	text20,global,reloc=2,class=CODE,delta=1
    33                           	psect	text21,global,reloc=2,class=CODE,delta=1
    34                           	psect	text22,global,reloc=2,class=CODE,delta=1
    35                           	psect	text23,global,reloc=2,class=CODE,delta=1
    36                           	psect	text24,global,reloc=2,class=CODE,delta=1
    37                           	psect	text25,global,reloc=2,class=CODE,delta=1
    38                           	psect	text26,global,reloc=2,class=CODE,delta=1
    39                           	psect	text27,global,reloc=2,class=CODE,delta=1
    40                           	psect	text28,global,reloc=2,class=CODE,delta=1
    41                           	psect	text29,global,reloc=2,class=CODE,delta=1
    42                           	psect	text30,global,reloc=2,class=CODE,delta=1
    43                           	psect	text31,global,reloc=2,class=CODE,delta=1
    44                           	psect	text32,global,reloc=2,class=CODE,delta=1
    45                           	psect	text33,global,reloc=2,class=CODE,delta=1
    46                           	psect	text34,global,reloc=2,class=CODE,delta=1
    47                           	psect	text35,global,reloc=2,class=CODE,delta=1
    48                           	psect	text36,global,reloc=2,class=CODE,delta=1
    49                           	psect	text37,global,reloc=2,class=CODE,delta=1
    50                           	psect	text38,global,reloc=2,class=CODE,delta=1
    51                           	psect	text39,global,reloc=2,class=CODE,delta=1
    52                           	psect	text40,global,reloc=2,class=CODE,delta=1
    53                           	psect	text41,global,reloc=2,class=CODE,delta=1
    54                           	psect	intsave_regs,global,class=BIGRAM,space=1,delta=1,noexec
    55                           	psect	rparam,global,class=COMRAM,space=1,delta=1,noexec
    56                           	dabs	1,0x408,4,_ep0Bi
    57                           	dabs	1,0x410,4,_ep1Bi
    58                           	dabs	1,0x414,8,_EP0OutEvenBuf
    59                           	dabs	1,0x404,4,_ep0BoOdd
    60                           	dabs	1,0x40C,4,_ep1Bo
    61                           	dabs	1,0x400,4,_ep0BoEven
    62                           	dabs	1,0x46C,64,_hid_report_in
    63                           	dabs	1,0x42C,64,_hid_report_out
    64                           	dabs	1,0x424,8,_CtrlTrfData
    65                           	dabs	1,0x41C,8,_EP0OutOddBuf
    66  0000                     
    67                           ; Version 1.45
    68                           ; Generated 16/11/2017 GMT
    69                           ; 
    70                           ; Copyright © 2017, Microchip Technology Inc. and its subsidiaries ("Microchip")
    71                           ; All rights reserved.
    72                           ; 
    73                           ; This software is developed by Microchip Technology Inc. and its subsidiaries ("Microch
      +                          ip").
    74                           ; 
    75                           ; Redistribution and use in source and binary forms, with or without modification, are
    76                           ; permitted provided that the following conditions are met:
    77                           ; 
    78                           ;     1. Redistributions of source code must retain the above copyright notice, this lis
      +                          t of
    79                           ;        conditions and the following disclaimer.
    80                           ; 
    81                           ;     2. Redistributions in binary form must reproduce the above copyright notice, this 
      +                          list
    82                           ;        of conditions and the following disclaimer in the documentation and/or other
    83                           ;        materials provided with the distribution.
    84                           ; 
    85                           ;     3. Microchip's name may not be used to endorse or promote products derived from th
      +                          is
    86                           ;        software without specific prior written permission.
    87                           ; 
    88                           ; THIS SOFTWARE IS PROVIDED BY MICROCHIP "AS IS" AND ANY EXPRESS OR IMPLIED WARRANTIES,
    89                           ; INCLUDING, BUT NOT LIMITED TO, THE IMPLIED WARRANTIES OF MERCHANTABILITY AND FITNESS F
      +                          OR
    90                           ; PURPOSE ARE DISCLAIMED.  IN NO EVENT SHALL MICROCHIP BE LIABLE FOR ANY DIRECT, INDIREC
      +                          T,
    91                           ; INCIDENTAL, SPECIAL, EXEMPLARY, OR CONSEQUENTIAL DAMAGES (INCLUDING BUT NOT LIMITED TO
    92                           ; PROCUREMENT OF SUBSTITUTE GOODS OR SERVICES; LOSS OF USE, DATA OR PROFITS; OR BUSINESS
    93                           ; INTERRUPTION) HOWSOEVER CAUSED AND ON ANY THEORY OF LIABILITY, WHETHER IN CONTRACT, ST
      +                          RICT
    94                           ; LIABILITY, OR TORT (INCLUDING NEGLIGENCE OR OTHERWISE) ARISING IN ANY WAY OUT OF THE U
      +                          SE OF
    95                           ; THIS SOFTWARE, EVEN IF ADVISED OF THE POSSIBILITY OF SUCH DAMAGE.
    96                           ; 
    97                           ; 
    98                           ; Code-generator required, PIC18F46J50 Definitions
    99                           ; 
   100                           ; SFR Addresses
   101  0000                     
   102                           	psect	smallconst
   103  000F00                     __psmallconst:
   104                           	opt stack 0
   105  000F00  00                 	db	0
   106  000F01                     _USB_SD_Ptr:
   107                           	opt stack 0
   108  000F01  B9                 	db	low _sd000
   109  000F02  0F                 	db	high _sd000
   110  000F03  07                 	db	low _sd001
   111  000F04  0F                 	db	high _sd001
   112  000F05  64                 	db	low _sd002
   113  000F06  0F                 	db	high _sd002
   114  000F07                     __end_of_USB_SD_Ptr:
   115                           	opt stack 0
   116  0000                     _FlashSignatureWord_absconstaddr	set	8198
   117  000F07                     _sd001:
   118                           	opt stack 0
   119  000F07  34                 	db	52
   120  000F08  03                 	db	3
   121  000F09  004D               	dw	77
   122  000F0B  0069               	dw	105
   123  000F0D  0063               	dw	99
   124  000F0F  0072               	dw	114
   125  000F11  006F               	dw	111
   126  000F13  0063               	dw	99
   127  000F15  0068               	dw	104
   128  000F17  0069               	dw	105
   129  000F19  0070               	dw	112
   130  000F1B  0020               	dw	32
   131  000F1D  0054               	dw	84
   132  000F1F  0065               	dw	101
   133  000F21  0063               	dw	99
   134  000F23  0068               	dw	104
   135  000F25  006E               	dw	110
   136  000F27  006F               	dw	111
   137  000F29  006C               	dw	108
   138  000F2B  006F               	dw	111
   139  000F2D  0067               	dw	103
   140  000F2F  0079               	dw	121
   141  000F31  0020               	dw	32
   142  000F33  0049               	dw	73
   143  000F35  006E               	dw	110
   144  000F37  0063               	dw	99
   145  000F39  002E               	dw	46
   146  000F3B                     __end_of_sd001:
   147                           	opt stack 0
   148  000F3B                     _CFG01:
   149                           	opt stack 0
   150  000F3B  09                 	db	9
   151  000F3C  02                 	db	2
   152  000F3D  29                 	db	41
   153  000F3E  00                 	db	0
   154  000F3F  01                 	db	1
   155  000F40  01                 	db	1
   156  000F41  00                 	db	0
   157  000F42  80                 	db	128
   158  000F43  32                 	db	50
   159  000F44  09                 	db	9
   160  000F45  04                 	db	4
   161  000F46  00                 	db	0
   162  000F47  00                 	db	0
   163  000F48  02                 	db	2
   164  000F49  03                 	db	3
   165  000F4A  00                 	db	0
   166  000F4B  00                 	db	0
   167  000F4C  00                 	db	0
   168  000F4D  09                 	db	9
   169  000F4E  21                 	db	33
   170  000F4F  11                 	db	17
   171  000F50  01                 	db	1
   172  000F51  00                 	db	0
   173  000F52  01                 	db	1
   174  000F53  22                 	db	34
   175  000F54  1D                 	db	29
   176  000F55  00                 	db	0
   177  000F56  07                 	db	7
   178  000F57  05                 	db	5
   179  000F58  81                 	db	129
   180  000F59  03                 	db	3
   181  000F5A  40                 	db	64
   182  000F5B  00                 	db	0
   183  000F5C  01                 	db	1
   184  000F5D  07                 	db	7
   185  000F5E  05                 	db	5
   186  000F5F  01                 	db	1
   187  000F60  03                 	db	3
   188  000F61  40                 	db	64
   189  000F62  00                 	db	0
   190  000F63  01                 	db	1
   191  000F64                     __end_of_CFG01:
   192                           	opt stack 0
   193  000F64                     _sd002:
   194                           	opt stack 0
   195  000F64  26                 	db	38
   196  000F65  03                 	db	3
   197  000F66  004D               	dw	77
   198  000F68  0045               	dw	69
   199  000F6A  0052               	dw	82
   200  000F6C  0043               	dw	67
   201  000F6E  0055               	dw	85
   202  000F70  0052               	dw	82
   203  000F72  0059               	dw	89
   204  000F74  0020               	dw	32
   205  000F76  0042               	dw	66
   206  000F78  006F               	dw	111
   207  000F7A  006F               	dw	111
   208  000F7C  0074               	dw	116
   209  000F7E  006C               	dw	108
   210  000F80  006F               	dw	111
   211  000F82  0061               	dw	97
   212  000F84  0064               	dw	100
   213  000F86  0065               	dw	101
   214  000F88  0072               	dw	114
   215  000F8A                     __end_of_sd002:
   216                           	opt stack 0
   217  000F8A                     _hid_rpt01:
   218                           	opt stack 0
   219  000F8A  06                 	db	6
   220  000F8B  00                 	db	0
   221  000F8C  FF                 	db	255
   222  000F8D  09                 	db	9
   223  000F8E  01                 	db	1
   224  000F8F  A1                 	db	161
   225  000F90  01                 	db	1
   226  000F91  19                 	db	25
   227  000F92  01                 	db	1
   228  000F93  29                 	db	41
   229  000F94  40                 	db	64
   230  000F95  15                 	db	21
   231  000F96  00                 	db	0
   232  000F97  26                 	db	38
   233  000F98  FF                 	db	255
   234  000F99  00                 	db	0
   235  000F9A  75                 	db	117
   236  000F9B  08                 	db	8
   237  000F9C  95                 	db	149
   238  000F9D  40                 	db	64
   239  000F9E  81                 	db	129
   240  000F9F  00                 	db	0
   241  000FA0  19                 	db	25
   242  000FA1  01                 	db	1
   243  000FA2  29                 	db	41
   244  000FA3  40                 	db	64
   245  000FA4  91                 	db	145
   246  000FA5  00                 	db	0
   247  000FA6  C0                 	db	192
   248  000FA7                     __end_of_hid_rpt01:
   249                           	opt stack 0
   250  000FA7                     _device_dsc:
   251                           	opt stack 0
   252  000FA7  12                 	db	18
   253  000FA8  01                 	db	1
   254  000FA9  0200               	dw	512
   255  000FAB  00                 	db	0
   256  000FAC  00                 	db	0
   257  000FAD  00                 	db	0
   258  000FAE  08                 	db	8
   259  000FAF  04D8               	dw	1240
   260  000FB1  003C               	dw	60
   261  000FB3  0101               	dw	257
   262  000FB5  01                 	db	1
   263  000FB6  02                 	db	2
   264  000FB7  00                 	db	0
   265  000FB8  01                 	db	1
   266  000FB9                     __end_of_device_dsc:
   267                           	opt stack 0
   268  000FB9                     _sd000:
   269                           	opt stack 0
   270  000FB9  04                 	db	4
   271  000FBA  03                 	db	3
   272  000FBB  0409               	dw	1033
   273  000FBD                     __end_of_sd000:
   274                           	opt stack 0
   275  0000                     _FlashSignatureWord_absconstaddr	set	8198
   276  000FBD  00                 	db	0	; dummy byte at the end
   277  0000                     
   278                           	psect	_FlashSignatureWord_const
   279  002006                     __p_FlashSignatureWord_const:
   280                           	opt stack 0
   281  002006                     _FlashSignatureWord:
   282                           	opt stack 0
   283  002006  ABCD               	dw	43981
   284  002008                     __end_of_FlashSignatureWord:
   285                           	opt stack 0
   286  0000                     _UEP0	set	3878
   287  0000                     _UEP7	set	3885
   288  0000                     _UEP6	set	3884
   289  0000                     _UEP5	set	3883
   290  0000                     _UEP4	set	3882
   291  0000                     _UEP3	set	3881
   292  0000                     _UEP2	set	3880
   293  0000                     _UEP1	set	3879
   294  0000                     _UADDR	set	3896
   295  0000                     _UEIE	set	3895
   296  0000                     _UIEbits	set	3894
   297  0000                     _UIE	set	3894
   298  0000                     _UCFG	set	3897
   299  0000                     _ANCON1	set	3913
   300  0000                     _ANCON0	set	3912
   301  0000                     _UIR	set	3938
   302  0000                     _PIE2bits	set	4000
   303  0000                     _USTATbits	set	3940
   304  0000                     _USTAT	set	3940
   305  0000                     _UIRbits	set	3938
   306  0000                     _UCON	set	3941
   307  0000                     _RCONbits	set	4048
   308  0000                     _PIR2bits	set	4001
   309  0000                     _WDTCONbits	set	4032
   310  0000                     _LATDbits	set	3980
   311  0000                     _OSCTUNEbits	set	3995
   312  0000                     _STKPTR	set	4092
   313  0000                     _INTCON	set	4082
   314  0000                     _PORTDbits	set	3971
   315  0000                     _TRISDbits	set	3989
   316  0000                     _EECON1bits	set	4006
   317  0000                     _EECON2	set	4007
   318  0000                     _OSCCON	set	4051
   319  0000                     _INTCONbits	set	4082
   320  0000                     _EECON1	set	4006
   321  0000                     _TABLAT	set	4085
   322  0000                     _TBLPTRL	set	4086
   323  0000                     _TBLPTRH	set	4087
   324  0000                     _TBLPTRU	set	4088
   325  0000                     _UCONbits	set	3941
   326                           
   327                           ; #config settings
   328  0000                     
   329                           	psect	cinit
   330  001FDC                     __pcinit:
   331                           	opt stack 0
   332  001FDC                     start_initialization:
   333                           	opt stack 0
   334  001FDC                     __initialization:
   335                           	opt stack 0
   336  001FDC                     end_of_initialization:
   337                           	opt stack 0
   338  001FDC                     __end_of__initialization:
   339                           	opt stack 0
   340  001FDC  0E00               	movlw	low (__Lmediumconst shr (0+16))
   341  001FDE  6EF8               	movwf	tblptru,c
   342  001FE0  0100               	movlb	0
   343  001FE2  EF12  F00F         	goto	_main	;jump to C main() function
   344                           tblptru	equ	0xFF8
   345                           
   346                           	psect	bssCOMRAM
   347  000001                     __pbssCOMRAM:
   348                           	opt stack 0
   349  000001                     _SetupPkt:
   350                           	opt stack 0
   351  000001                     	ds	8
   352  000009                     _TempBDT:
   353                           	opt stack 0
   354  000009                     	ds	4
   355  00000D                     EraseFlashPage@TablePointerValue:
   356                           	opt stack 0
   357  00000D                     	ds	4
   358  000011                     WriteFlashSubBlock@Address:
   359                           	opt stack 0
   360  000011                     	ds	4
   361  000015                     _ProgrammedPointer:
   362                           	opt stack 0
   363  000015                     	ds	4
   364  000019                     _ProgramMemStopAddress:
   365                           	opt stack 0
   366  000019                     	ds	4
   367  00001D                     _pDst:
   368                           	opt stack 0
   369  00001D                     	ds	3
   370  000020                     _pSrc:
   371                           	opt stack 0
   372  000020                     	ds	3
   373  000023                     LoadBDTandSetUOWN@pBDTEntry:
   374                           	opt stack 0
   375  000023                     	ds	2
   376  000025                     USBDeviceTasks@pBDTEntry:
   377                           	opt stack 0
   378  000025                     	ds	2
   379  000027                     _Counter:
   380                           	opt stack 0
   381  000027                     	ds	2
   382  000029                     _wCount:
   383                           	opt stack 0
   384  000029                     	ds	2
   385  00002B                     BlinkUSBStatus@led_count:
   386                           	opt stack 0
   387  00002B                     	ds	2
   388  00002D                     _uint_delay_counter:
   389                           	opt stack 0
   390  00002D                     	ds	2
   391  00002F                     SignFlash@i:
   392                           	opt stack 0
   393  00002F                     	ds	2
   394  000031                     ProcessIO@i:
   395                           	opt stack 0
   396  000031                     	ds	2
   397  000033                     _hid_rpt_rx_len:
   398                           	opt stack 0
   399  000033                     	ds	1
   400  000034                     USBStdSetCfgHandler@i:
   401                           	opt stack 0
   402  000034                     	ds	1
   403  000035                     USBCtrlTrfTxService@bytes_to_send:
   404                           	opt stack 0
   405  000035                     	ds	1
   406  000036                     USBSuspend@UIESave:
   407                           	opt stack 0
   408  000036                     	ds	1
   409  000037                     USBDeviceTasks@i:
   410                           	opt stack 0
   411  000037                     	ds	1
   412  000038                     _DeviceIsSoftDetached:
   413                           	opt stack 0
   414  000038                     	ds	1
   415  000039                     _USTATSave:
   416                           	opt stack 0
   417  000039                     	ds	1
   418  00003A                     _usb_stat:
   419                           	opt stack 0
   420  00003A                     	ds	1
   421  00003B                     _EP0OutOddNeedsArmingNext:
   422                           	opt stack 0
   423  00003B                     	ds	1
   424  00003C                     _short_pkt_status:
   425                           	opt stack 0
   426  00003C                     	ds	1
   427  00003D                     _ctrl_trf_session_owner:
   428                           	opt stack 0
   429  00003D                     	ds	1
   430  00003E                     _ctrl_trf_state:
   431                           	opt stack 0
   432  00003E                     	ds	1
   433  00003F                     _bTRNIFCount:
   434                           	opt stack 0
   435  00003F                     	ds	1
   436  000040                     USBCBSuspend@OSCCONSave:
   437                           	opt stack 0
   438  000040                     	ds	1
   439  000041                     WriteFlashSubBlock@i:
   440                           	opt stack 0
   441  000041                     	ds	1
   442  000042                     _BufferedDataIndex:
   443                           	opt stack 0
   444  000042                     	ds	1
   445  000043                     _BootState:
   446                           	opt stack 0
   447  000043                     	ds	1
   448  000044                     _MaxPageToErase:
   449                           	opt stack 0
   450  000044                     	ds	1
   451  000045                     _usb_device_state:
   452                           	opt stack 0
   453  000045                     	ds	1
   454  000046                     _active_protocol:
   455                           	opt stack 0
   456  000046                     	ds	1
   457  000047                     _idle_rate:
   458                           	opt stack 0
   459  000047                     	ds	1
   460  000048                     _usb_alt_intf:
   461                           	opt stack 0
   462  000048                     	ds	1
   463  000049                     _usb_active_cfg:
   464                           	opt stack 0
   465  000049                     	ds	1
   466                           tblptru	equ	0xFF8
   467                           
   468                           	psect	bssBANK0
   469  000060                     __pbssBANK0:
   470                           	opt stack 0
   471  000060                     _PacketToPC:
   472                           	opt stack 0
   473  000060                     	ds	65
   474  0000A1                     _PacketFromPC:
   475                           	opt stack 0
   476  0000A1                     	ds	65
   477                           tblptru	equ	0xFF8
   478                           
   479                           	psect	bssBIGRAMh
   480  0004AC                     __pbssBIGRAMh:
   481                           	opt stack 0
   482  0004AC                     _ProgrammingBuffer:
   483                           	opt stack 0
   484  0004AC                     	ds	1024
   485                           tblptru	equ	0xFF8
   486                           
   487                           	psect	cstackCOMRAM
   488  00004A                     __pcstackCOMRAM:
   489                           	opt stack 0
   490  00004A                     ??_BlinkUSBStatus:
   491  00004A                     ??_USBStdGetDscHandler:
   492  00004A                     ??_USBStdGetStatusHandler:
   493  00004A                     ??_USBStdFeatureReqHandler:
   494  00004A                     UnlockAndActivate@UnlockKey:
   495                           	opt stack 0
   496  00004A                     USBCBInitEP@ConfigurationIndex:
   497                           	opt stack 0
   498  00004A                     LoadBDTandSetUOWN@BDTIndexToLoad:
   499                           	opt stack 0
   500  00004A                     DelayRoutine@DelayAmount:
   501                           	opt stack 0
   502  00004A                     HIDTxReport@buffer:
   503                           	opt stack 0
   504  00004A                     HIDRxReport@buffer:
   505                           	opt stack 0
   506                           
   507                           ; 2 bytes @ 0x0
   508  00004A                     	ds	1
   509  00004B                     ??_WriteFlashSubBlock:
   510  00004B                     EraseFlashPage@PageNumToErase:
   511                           	opt stack 0
   512                           
   513                           ; 2 bytes @ 0x1
   514  00004B                     	ds	1
   515  00004C                     HIDTxReport@len:
   516                           	opt stack 0
   517  00004C                     HIDRxReport@len:
   518                           	opt stack 0
   519                           
   520                           ; 1 bytes @ 0x2
   521  00004C                     	ds	1
   522  00004D                     ??_HIDRxReport:
   523  00004D                     ??_HIDTxReport:
   524  00004D                     ??_EraseFlashPage:
   525                           
   526                           ; 1 bytes @ 0x3
   527  00004D                     	ds	1
   528  00004E                     ??_USBDeviceTasks:
   529  00004E                     HIDTxReport@i:
   530                           	opt stack 0
   531                           
   532                           ; 1 bytes @ 0x4
   533  00004E                     	ds	3
   534  000051                     ??_SignFlash:
   535                           
   536                           ; 1 bytes @ 0x7
   537  000051                     	ds	4
   538  000055                     SignFlash@pROM:
   539                           	opt stack 0
   540                           
   541                           ; 3 bytes @ 0xB
   542  000055                     	ds	3
   543  000058                     ??_ProcessIO:
   544                           
   545                           ; 1 bytes @ 0xE
   546  000058                     	ds	2
   547  00005A                     main@Button:
   548                           	opt stack 0
   549                           
   550                           ; 1 bytes @ 0x10
   551  00005A                     	ds	1
   552                           tblptru	equ	0xFF8
   553                           
   554 ;;
   555 ;;Main: autosize = 0, tempsize = 0, incstack = 0, save=0
   556 ;;
   557 ;; *************** function _main *****************
   558 ;; Defined at:
   559 ;;		line 309 in file "../Source/c/main.c"
   560 ;; Parameters:    Size  Location     Type
   561 ;;		None
   562 ;; Auto vars:     Size  Location     Type
   563 ;;  Button          1   16[COMRAM] volatile unsigned char 
   564 ;; Return value:  Size  Location     Type
   565 ;;                  1    wreg      void 
   566 ;; Registers used:
   567 ;;		wreg, fsr1l, fsr1h, fsr2l, fsr2h, status,2, status,0, tblptrl, tblptrh, tblptru, prodl, prodh, cstack
   568 ;; Tracked objects:
   569 ;;		On entry : 0/0
   570 ;;		On exit  : 0/0
   571 ;;		Unchanged: 0/0
   572 ;; Data sizes:     COMRAM   BANK0   BANK1   BANK2   BANK3  BANK4h   BANK5   BANK6   BANK7   BANK8   BANK9  BANK10  BANK1
      +1  BANK12  BANK13  BANK14
   573 ;;      Params:         0       0       0       0       0       0       0       0       0       0       0       0       
      +0       0       0       0
   574 ;;      Locals:         1       0       0       0       0       0       0       0       0       0       0       0       
      +0       0       0       0
   575 ;;      Temps:          0       0       0       0       0       0       0       0       0       0       0       0       
      +0       0       0       0
   576 ;;      Totals:         1       0       0       0       0       0       0       0       0       0       0       0       
      +0       0       0       0
   577 ;;Total ram usage:        1 bytes
   578 ;; Hardware stack levels required when called:    8
   579 ;; This function calls:
   580 ;;		_BootMain
   581 ;; This function is called by:
   582 ;;		Startup code after reset
   583 ;; This function uses a non-reentrant model
   584 ;;
   585                           
   586                           	psect	text0
   587  001E24                     __ptext0:
   588                           	opt stack 0
   589  001E24                     _main:
   590                           	opt stack 23
   591                           
   592                           ;main.c: 311: volatile unsigned char Button = 0;
   593                           
   594                           ;incstack = 0
   595  001E24  0E00               	movlw	0
   596  001E26  6E5A               	movwf	main@Button,c	;volatile
   597  001E28  F000               	nop		;# 
   598  001E2A  F000               	nop		;# 
   599  001E2C  F000               	nop		;# 
   600                           
   601                           ;main.c: 331: TRISDbits.TRISD7 = 1;
   602  001E2E  8E95               	bsf	3989,7,c	;volatile
   603  001E30  F000               	nop		;# 
   604  001E32  F000               	nop		;# 
   605  001E34  F000               	nop		;# 
   606                           
   607                           ;main.c: 335: Button = PORTDbits.RD7;
   608  001E36  0E00               	movlw	0
   609  001E38  BE83               	btfsc	3971,7,c	;volatile
   610  001E3A  0E01               	movlw	1
   611  001E3C  6E5A               	movwf	main@Button,c	;volatile
   612                           
   613                           ;main.c: 340: if (Button == 1)
   614  001E3E  045A               	decf	main@Button,w,c	;volatile
   615  001E40  A4D8               	btfss	status,2,c
   616  001E42  D002               	goto	l211
   617                           
   618                           ;main.c: 341: {
   619                           ;main.c: 345: {TRISDbits.TRISD7 = 0;};
   620  001E44  9E95               	bcf	3989,7,c	;volatile
   621                           
   622                           ;main.c: 350: }
   623                           
   624                           ;main.c: 349: goto DoFlashSignatureCheck;
   625  001E46  D002               	goto	l213
   626  001E48                     l211:
   627                           
   628                           ;main.c: 351: else
   629                           ;main.c: 352: {
   630                           ;main.c: 354: BootMain();
   631  001E48  EC18  F000         	call	_BootMain	;wreg free
   632  001E4C                     l213:
   633                           
   634                           ;main.c: 355: }
   635                           ;main.c: 358: DoFlashSignatureCheck:
   636  001E4C  EF00 F010          	goto	8192	;# 
   637                           
   638                           ;main.c: 377: }
   639                           ;main.c: 378: }
   640                           ;main.c: 384: BootMain();
   641  001E50  EC18  F000         	call	_BootMain	;wreg free
   642  001E54  EF00  F000         	goto	start
   643  001E58                     __end_of_main:
   644                           	opt stack 0
   645                           tblptru	equ	0xFF8
   646                           status	equ	0xFD8
   647                           
   648 ;; *************** function _BootMain *****************
   649 ;; Defined at:
   650 ;;		line 413 in file "../Source/c/main.c"
   651 ;; Parameters:    Size  Location     Type
   652 ;;		None
   653 ;; Auto vars:     Size  Location     Type
   654 ;;		None
   655 ;; Return value:  Size  Location     Type
   656 ;;                  1    wreg      void 
   657 ;; Registers used:
   658 ;;		wreg, fsr1l, fsr1h, fsr2l, fsr2h, status,2, status,0, tblptrl, tblptrh, tblptru, prodl, prodh, cstack
   659 ;; Tracked objects:
   660 ;;		On entry : 0/0
   661 ;;		On exit  : 0/0
   662 ;;		Unchanged: 0/0
   663 ;; Data sizes:     COMRAM   BANK0   BANK1   BANK2   BANK3  BANK4h   BANK5   BANK6   BANK7   BANK8   BANK9  BANK10  BANK1
      +1  BANK12  BANK13  BANK14
   664 ;;      Params:         0       0       0       0       0       0       0       0       0       0       0       0       
      +0       0       0       0
   665 ;;      Locals:         0       0       0       0       0       0       0       0       0       0       0       0       
      +0       0       0       0
   666 ;;      Temps:          0       0       0       0       0       0       0       0       0       0       0       0       
      +0       0       0       0
   667 ;;      Totals:         0       0       0       0       0       0       0       0       0       0       0       0       
      +0       0       0       0
   668 ;;Total ram usage:        0 bytes
   669 ;; Hardware stack levels used:    1
   670 ;; Hardware stack levels required when called:    7
   671 ;; This function calls:
   672 ;;		_BlinkUSBStatus
   673 ;;		_InitializeSystem
   674 ;;		_LowVoltageCheck
   675 ;;		_ProcessIO
   676 ;;		_USBDeviceTasks
   677 ;; This function is called by:
   678 ;;		_main
   679 ;; This function uses a non-reentrant model
   680 ;;
   681                           
   682                           	psect	_BootMain_text
   683  000030                     __p_BootMain_text:
   684                           	opt stack 0
   685  000030                     _BootMain:
   686                           	opt stack 23
   687                           
   688                           ;incstack = 0
   689  0000                     
   690                           ;main.c: 430: INTCON = 0x00;
   691  000030  0E00               	movlw	0
   692  000032  6EF2               	movwf	intcon,c	;volatile
   693                           
   694                           ;main.c: 444: STKPTR = 0x00;
   695  000034  0E00               	movlw	0
   696  000036  6EFC               	movwf	stkptr,c	;volatile
   697                           
   698                           ;main.c: 453: InitializeSystem();
   699  000038  EC58  F00F         	call	_InitializeSystem	;wreg free
   700  00003C                     l217:
   701  00003C  0004               	clrwdt		;# 
   702                           
   703                           ;main.c: 463: USBDeviceTasks();
   704  00003E  EC99  F00A         	call	_USBDeviceTasks	;wreg free
   705                           
   706                           ;main.c: 465: BlinkUSBStatus();
   707  000042  ECF5  F00E         	call	_BlinkUSBStatus	;wreg free
   708                           
   709                           ;main.c: 467: LowVoltageCheck();
   710  000046  ECD7  F00E         	call	_LowVoltageCheck	;wreg free
   711                           
   712                           ;main.c: 471: ProcessIO();
   713  00004A  ECDF  F007         	call	_ProcessIO	;wreg free
   714  00004E  D7F6               	goto	l217
   715  000050                     __end_of_BootMain:
   716                           	opt stack 0
   717                           stkptr	equ	0xFFC
   718                           tblptru	equ	0xFF8
   719                           intcon	equ	0xFF2
   720                           status	equ	0xFD8
   721                           
   722 ;; *************** function _ProcessIO *****************
   723 ;; Defined at:
   724 ;;		line 276 in file "../Source/c/boot_18fxxjxx.c"
   725 ;; Parameters:    Size  Location     Type
   726 ;;		None
   727 ;; Auto vars:     Size  Location     Type
   728 ;;		None
   729 ;; Return value:  Size  Location     Type
   730 ;;                  1    wreg      void 
   731 ;; Registers used:
   732 ;;		wreg, fsr1l, fsr1h, fsr2l, fsr2h, status,2, status,0, tblptrl, tblptrh, tblptru, prodl, prodh, cstack
   733 ;; Tracked objects:
   734 ;;		On entry : 0/0
   735 ;;		On exit  : 0/0
   736 ;;		Unchanged: 0/0
   737 ;; Data sizes:     COMRAM   BANK0   BANK1   BANK2   BANK3  BANK4h   BANK5   BANK6   BANK7   BANK8   BANK9  BANK10  BANK1
      +1  BANK12  BANK13  BANK14
   738 ;;      Params:         0       0       0       0       0       0       0       0       0       0       0       0       
      +0       0       0       0
   739 ;;      Locals:         0       0       0       0       0       0       0       0       0       0       0       0       
      +0       0       0       0
   740 ;;      Temps:          2       0       0       0       0       0       0       0       0       0       0       0       
      +0       0       0       0
   741 ;;      Totals:         2       0       0       0       0       0       0       0       0       0       0       0       
      +0       0       0       0
   742 ;;Total ram usage:        2 bytes
   743 ;; Hardware stack levels used:    1
   744 ;; Hardware stack levels required when called:    6
   745 ;; This function calls:
   746 ;;		_ClearWatchdog
   747 ;;		_EraseFlashPage
   748 ;;		_HIDRxReport
   749 ;;		_HIDTxReport
   750 ;;		_ResetDeviceCleanly
   751 ;;		_SignFlash
   752 ;;		_USBDeviceTasks
   753 ;;		_WriteFlashSubBlock
   754 ;; This function is called by:
   755 ;;		_BootMain
   756 ;; This function uses a non-reentrant model
   757 ;;
   758                           
   759                           	psect	text2
   760  000FBE                     __ptext2:
   761                           	opt stack 0
   762  000FBE                     _ProcessIO:
   763                           	opt stack 23
   764                           
   765                           ;boot_18fxxjxx.c: 278: static unsigned int i;
   766                           ;boot_18fxxjxx.c: 286: if((usb_device_state != 6) || (UCONbits.SUSPND == 1))
   767                           
   768                           ;incstack = 0
   769  000FBE  0E06               	movlw	6
   770  000FC0  1845               	xorwf	_usb_device_state,w,c
   771  000FC2  A4D8               	btfss	status,2,c
   772  000FC4  0012               	return	
   773  000FC6  B265               	btfsc	3941,1,c	;volatile
   774  000FC8  0012               	return	
   775                           
   776                           ;boot_18fxxjxx.c: 291: }
   777                           ;boot_18fxxjxx.c: 296: if(BootState == 0x00)
   778                           
   779                           ;boot_18fxxjxx.c: 287: {
   780                           ;boot_18fxxjxx.c: 290: return;
   781  000FCA  5043               	movf	_BootState,w,c
   782  000FCC  A4D8               	btfss	status,2,c
   783  000FCE  D1A9               	goto	l83
   784                           
   785                           ;boot_18fxxjxx.c: 297: {
   786                           ;boot_18fxxjxx.c: 300: if(!ep1Bo.Stat.UOWN)
   787  000FD0  0104               	movlb	4	; () banked
   788  000FD2  BF0C               	btfsc	12,7,b	;volatile
   789  000FD4  0012               	return	
   790                           
   791                           ; BSR set to: 4
   792                           ;boot_18fxxjxx.c: 301: {
   793                           ;boot_18fxxjxx.c: 304: HIDRxReport((char *)&PacketFromPC, 0x40);
   794  000FD6  0EA1               	movlw	low _PacketFromPC
   795  000FD8  6E4A               	movwf	HIDRxReport@buffer,c
   796  000FDA  0E00               	movlw	high _PacketFromPC
   797  000FDC  6E4B               	movwf	HIDRxReport@buffer+1,c
   798  000FDE  0E40               	movlw	64
   799  000FE0  6E4C               	movwf	HIDRxReport@len,c
   800  000FE2  EC6B  F00D         	call	_HIDRxReport	;wreg free
   801                           
   802                           ;boot_18fxxjxx.c: 305: BootState = 0x01;
   803  000FE6  0E01               	movlw	1
   804  000FE8  6E43               	movwf	_BootState,c
   805                           
   806                           ;boot_18fxxjxx.c: 308: for(i = 0; i < 0x40; i++)
   807  000FEA  0E00               	movlw	0
   808  000FEC  6E32               	movwf	ProcessIO@i+1,c
   809  000FEE  0E00               	movlw	0
   810  000FF0  6E31               	movwf	ProcessIO@i,c
   811  000FF2  5032               	movf	ProcessIO@i+1,w,c
   812  000FF4  E105               	bnz	u2180
   813  000FF6  0E40               	movlw	64
   814  000FF8  5C31               	subwf	ProcessIO@i,w,c
   815  000FFA  B0D8               	btfsc	status,0,c
   816  000FFC  0012               	return	
   817  000FFE  D001               	goto	l80
   818  001000                     u2180:
   819  001000  0012               	return	
   820  001002                     l80:
   821                           
   822                           ;boot_18fxxjxx.c: 309: PacketToPC.Contents[i] = 0;
   823  001002  0E60               	movlw	low _PacketToPC
   824  001004  2431               	addwf	ProcessIO@i,w,c
   825  001006  6ED9               	movwf	fsr2l,c
   826  001008  0E00               	movlw	high _PacketToPC
   827  00100A  2032               	addwfc	ProcessIO@i+1,w,c
   828  00100C  6EDA               	movwf	fsr2h,c
   829  00100E  0E00               	movlw	0
   830  001010  6EDF               	movwf	indf2,c
   831  001012  4A31               	infsnz	ProcessIO@i,f,c
   832  001014  2A32               	incf	ProcessIO@i+1,f,c
   833  001016  5032               	movf	ProcessIO@i+1,w,c
   834  001018  E101               	bnz	u2190
   835  00101A  D7ED               	goto	L2
   836  00101C                     u2190:
   837                           
   838                           ;boot_18fxxjxx.c: 310: }
   839                           ;boot_18fxxjxx.c: 311: }
   840  00101C  0012               	return	
   841  00101E                     
   842                           ;boot_18fxxjxx.c: 320: PacketToPC.Command = 0x02;
   843  00101E  0E02               	movlw	2
   844  001020  0100               	movlb	0	; () banked
   845  001022  6F60               	movwf	_PacketToPC& (0+255),b
   846                           
   847                           ;boot_18fxxjxx.c: 321: PacketToPC.PacketDataFieldSize = 0x3A;
   848  001024  0E3A               	movlw	58
   849  001026  6F61               	movwf	(_PacketToPC+1)& (0+255),b
   850                           
   851                           ;boot_18fxxjxx.c: 322: PacketToPC.BytesPerAddress = 0x01;
   852  001028  0E01               	movlw	1
   853  00102A  6F62               	movwf	(_PacketToPC+2)& (0+255),b
   854                           
   855                           ;boot_18fxxjxx.c: 323: PacketToPC.Type1 = 0x01;
   856  00102C  0E01               	movlw	1
   857  00102E  6F63               	movwf	(_PacketToPC+3)& (0+255),b
   858                           
   859                           ;boot_18fxxjxx.c: 324: PacketToPC.Address1 = (unsigned long)(uint32_t)0x2000;
   860  001030  0E00               	movlw	0
   861  001032  6F64               	movwf	(_PacketToPC+4)& (0+255),b
   862  001034  0E20               	movlw	32
   863  001036  6F65               	movwf	(_PacketToPC+5)& (0+255),b
   864  001038  0E00               	movlw	0
   865  00103A  6F66               	movwf	(_PacketToPC+6)& (0+255),b
   866  00103C  0E00               	movlw	0
   867  00103E  6F67               	movwf	(_PacketToPC+7)& (0+255),b
   868                           
   869                           ; BSR set to: 0
   870                           ;boot_18fxxjxx.c: 325: PacketToPC.Length1 = (unsigned long)(ProgramMemStopAddress - (uin
      +                          t32_t)0x2000);
   871  001040  0E00               	movlw	0
   872  001042  2419               	addwf	_ProgramMemStopAddress,w,c
   873  001044  6F68               	movwf	(_PacketToPC+8)& (0+255),b
   874  001046  0EE0               	movlw	224
   875  001048  201A               	addwfc	_ProgramMemStopAddress+1,w,c
   876  00104A  6F69               	movwf	(_PacketToPC+9)& (0+255),b
   877  00104C  0EFF               	movlw	255
   878  00104E  201B               	addwfc	_ProgramMemStopAddress+2,w,c
   879  001050  6F6A               	movwf	(_PacketToPC+10)& (0+255),b
   880  001052  0EFF               	movlw	255
   881  001054  201C               	addwfc	_ProgramMemStopAddress+3,w,c
   882  001056  6F6B               	movwf	(_PacketToPC+11)& (0+255),b
   883                           
   884                           ; BSR set to: 0
   885                           ;boot_18fxxjxx.c: 326: PacketToPC.Type2 = 0x03;
   886  001058  0E03               	movlw	3
   887  00105A  6F6C               	movwf	(_PacketToPC+12)& (0+255),b
   888                           
   889                           ; BSR set to: 0
   890                           ;boot_18fxxjxx.c: 327: PacketToPC.Address2 = (unsigned long)(uint32_t)0x00FFF8;
   891  00105C  0EF8               	movlw	248
   892  00105E  6F6D               	movwf	(_PacketToPC+13)& (0+255),b
   893  001060  0EFF               	movlw	255
   894  001062  6F6E               	movwf	(_PacketToPC+14)& (0+255),b
   895  001064  0E00               	movlw	0
   896  001066  6F6F               	movwf	(_PacketToPC+15)& (0+255),b
   897  001068  0E00               	movlw	0
   898  00106A  6F70               	movwf	(_PacketToPC+16)& (0+255),b
   899                           
   900                           ; BSR set to: 0
   901                           ;boot_18fxxjxx.c: 328: PacketToPC.Length2 = (unsigned long)8;
   902  00106C  0E08               	movlw	8
   903  00106E  6F71               	movwf	(_PacketToPC+17)& (0+255),b
   904  001070  0E00               	movlw	0
   905  001072  6F72               	movwf	(_PacketToPC+18)& (0+255),b
   906  001074  0E00               	movlw	0
   907  001076  6F73               	movwf	(_PacketToPC+19)& (0+255),b
   908  001078  0E00               	movlw	0
   909  00107A  6F74               	movwf	(_PacketToPC+20)& (0+255),b
   910                           
   911                           ; BSR set to: 0
   912                           ;boot_18fxxjxx.c: 329: PacketToPC.Type3 = 0xFF;
   913  00107C  6975               	setf	(_PacketToPC+21)& (0+255),b
   914                           
   915                           ; BSR set to: 0
   916                           ;boot_18fxxjxx.c: 330: PacketToPC.VersionFlag = 0xA5;
   917  00107E  0EA5               	movlw	165
   918  001080  6F99               	movwf	(_PacketToPC+57)& (0+255),b
   919                           
   920                           ; BSR set to: 0
   921                           ;boot_18fxxjxx.c: 334: if(!ep1Bi.Stat.UOWN)
   922  001082  0104               	movlb	4	; () banked
   923  001084  BF10               	btfsc	16,7,b	;volatile
   924  001086  0012               	return	
   925                           
   926                           ; BSR set to: 4
   927                           ;boot_18fxxjxx.c: 335: {
   928                           ;boot_18fxxjxx.c: 336: HIDTxReport((char *)&PacketToPC, 0x40);
   929  001088  0E60               	movlw	low _PacketToPC
   930  00108A  6E4A               	movwf	HIDTxReport@buffer,c
   931  00108C  0E00               	movlw	high _PacketToPC
   932  00108E  6E4B               	movwf	HIDTxReport@buffer+1,c
   933  001090  0E40               	movlw	64
   934  001092  6E4C               	movwf	HIDTxReport@len,c
   935  001094  ECA6  F00D         	call	_HIDTxReport	;wreg free
   936                           
   937                           ;boot_18fxxjxx.c: 337: BootState = 0x00;
   938  001098  0E00               	movlw	0
   939  00109A  6E43               	movwf	_BootState,c
   940                           
   941                           ;boot_18fxxjxx.c: 338: }
   942                           ;boot_18fxxjxx.c: 339: break;
   943  00109C  0012               	return	
   944  00109E                     
   945                           ;boot_18fxxjxx.c: 341: if(PacketFromPC.LockValue == 0x00)
   946  00109E  0100               	movlb	0	; () banked
   947  0010A0  51A2               	movf	(_PacketFromPC+1)& (0+255),w,b
   948  0010A2  A4D8               	btfss	status,2,c
   949  0010A4  D006               	goto	l88
   950                           
   951                           ; BSR set to: 0
   952                           ;boot_18fxxjxx.c: 342: {
   953                           ;boot_18fxxjxx.c: 343: MaxPageToErase = (((uint32_t)0x00FFF8)/1024);
   954  0010A6  0E3F               	movlw	63
   955  0010A8  6E44               	movwf	_MaxPageToErase,c
   956                           
   957                           ;boot_18fxxjxx.c: 344: ProgramMemStopAddress = ((uint32_t)0x00FFF8);
   958  0010AA  0EF8               	movlw	248
   959  0010AC  6E19               	movwf	_ProgramMemStopAddress,c
   960  0010AE  0EFF               	movlw	255
   961  0010B0  D005               	goto	L1
   962  0010B2                     l88:
   963                           
   964                           ; BSR set to: 0
   965                           ;boot_18fxxjxx.c: 346: else
   966                           ;boot_18fxxjxx.c: 347: {
   967                           ;boot_18fxxjxx.c: 348: MaxPageToErase = ((((uint32_t)0x00FFF8)/1024) - 1);
   968                           
   969                           ; BSR set to: 0
   970  0010B2  0E3E               	movlw	62
   971  0010B4  6E44               	movwf	_MaxPageToErase,c
   972                           
   973                           ;boot_18fxxjxx.c: 349: ProgramMemStopAddress = ((((((uint32_t)0x00FFF8)/1024) - 1) + 1) 
      +                          * 1024);
   974  0010B6  0E00               	movlw	0
   975  0010B8  6E19               	movwf	_ProgramMemStopAddress,c
   976  0010BA  0EFC               	movlw	252
   977  0010BC                     L1:
   978  0010BC  6E1A               	movwf	_ProgramMemStopAddress+1,c
   979  0010BE  0E00               	movlw	0
   980  0010C0  6E1B               	movwf	_ProgramMemStopAddress+2,c
   981  0010C2  0E00               	movlw	0
   982  0010C4  6E1C               	movwf	_ProgramMemStopAddress+3,c
   983                           
   984                           ; BSR set to: 0
   985                           ;boot_18fxxjxx.c: 350: }
   986                           ;boot_18fxxjxx.c: 351: BootState = 0x00;
   987  0010C6  0E00               	movlw	0
   988  0010C8  6E43               	movwf	_BootState,c
   989                           
   990                           ;boot_18fxxjxx.c: 352: break;
   991  0010CA  0012               	return	
   992  0010CC                     
   993                           ; BSR set to: 0
   994                           ;boot_18fxxjxx.c: 358: for(i = ((uint32_t)0x2000/1024); i < (MaxPageToErase + 1); i++)
   995                           
   996                           ; BSR set to: 0
   997  0010CC  0E00               	movlw	0
   998  0010CE  6E32               	movwf	ProcessIO@i+1,c
   999  0010D0  0E08               	movlw	8
  1000  0010D2  6E31               	movwf	ProcessIO@i,c
  1001  0010D4  D00C               	goto	l91
  1002  0010D6                     
  1003                           ;boot_18fxxjxx.c: 359: {
  1004                           ;boot_18fxxjxx.c: 360: ClearWatchdog();
  1005                           
  1006                           ; BSR set to: 0
  1007  0010D6  EC02  F000         	call	_ClearWatchdog	;wreg free
  1008                           
  1009                           ;boot_18fxxjxx.c: 361: EraseFlashPage(i);
  1010  0010DA  C031  F04B         	movff	ProcessIO@i,EraseFlashPage@PageNumToErase
  1011  0010DE  C032  F04C         	movff	ProcessIO@i+1,EraseFlashPage@PageNumToErase+1
  1012  0010E2  EC3F  F00E         	call	_EraseFlashPage	;wreg free
  1013                           
  1014                           ;boot_18fxxjxx.c: 362: USBDeviceTasks();
  1015  0010E6  EC99  F00A         	call	_USBDeviceTasks	;wreg free
  1016  0010EA  4A31               	infsnz	ProcessIO@i,f,c
  1017  0010EC  2A32               	incf	ProcessIO@i+1,f,c
  1018  0010EE                     l91:
  1019  0010EE  5044               	movf	_MaxPageToErase,w,c
  1020  0010F0  6E58               	movwf	??_ProcessIO& (0+255),c
  1021  0010F2  6A59               	clrf	(??_ProcessIO+1)& (0+255),c
  1022  0010F4  0E01               	movlw	1
  1023  0010F6  2658               	addwf	??_ProcessIO,f,c
  1024  0010F8  0E00               	movlw	0
  1025  0010FA  2259               	addwfc	??_ProcessIO+1,f,c
  1026  0010FC  5058               	movf	??_ProcessIO,w,c
  1027  0010FE  5C31               	subwf	ProcessIO@i,w,c
  1028  001100  5059               	movf	??_ProcessIO+1,w,c
  1029  001102  5832               	subwfb	ProcessIO@i+1,w,c
  1030  001104  A0D8               	btfss	status,0,c
  1031  001106  D7E7               	goto	l92
  1032                           
  1033                           ;boot_18fxxjxx.c: 363: }
  1034                           ;boot_18fxxjxx.c: 364: BootState = 0x00;
  1035  001108  0E00               	movlw	0
  1036  00110A  6E43               	movwf	_BootState,c
  1037                           
  1038                           ;boot_18fxxjxx.c: 365: break;
  1039  00110C  0012               	return	
  1040  00110E                     
  1041                           ;boot_18fxxjxx.c: 367: if(ProgrammedPointer == (uint32_t)0xFFFFFFFF)
  1042  00110E  2815               	incf	_ProgrammedPointer,w,c
  1043  001110  E10F               	bnz	l3081
  1044  001112  2816               	incf	_ProgrammedPointer+1,w,c
  1045  001114  E10D               	bnz	l3081
  1046  001116  2817               	incf	_ProgrammedPointer+2,w,c
  1047  001118  E10B               	bnz	l3081
  1048  00111A  2818               	incf	_ProgrammedPointer+3,w,c
  1049  00111C  A4D8               	btfss	status,2,c
  1050  00111E  D008               	goto	l95
  1051                           
  1052                           ;boot_18fxxjxx.c: 368: ProgrammedPointer = PacketFromPC.Address;
  1053  001120  C0A2  F015         	movff	_PacketFromPC+1,_ProgrammedPointer
  1054  001124  C0A3  F016         	movff	_PacketFromPC+2,_ProgrammedPointer+1
  1055  001128  C0A4  F017         	movff	_PacketFromPC+3,_ProgrammedPointer+2
  1056  00112C  C0A5  F018         	movff	_PacketFromPC+4,_ProgrammedPointer+3
  1057  001130                     l95:
  1058  001130                     l3081:
  1059                           
  1060                           ;boot_18fxxjxx.c: 370: if(ProgrammedPointer == (uint32_t)PacketFromPC.Address)
  1061  001130  5015               	movf	_ProgrammedPointer,w,c
  1062  001132  0100               	movlb	0	; () banked
  1063  001134  19A2               	xorwf	(_PacketFromPC+1)& (0+255),w,b
  1064  001136  E146               	bnz	l3099
  1065  001138  5016               	movf	_ProgrammedPointer+1,w,c
  1066  00113A  19A3               	xorwf	(_PacketFromPC+2)& (0+255),w,b
  1067  00113C  E143               	bnz	l3099
  1068  00113E  5017               	movf	_ProgrammedPointer+2,w,c
  1069  001140  19A4               	xorwf	(_PacketFromPC+3)& (0+255),w,b
  1070  001142  E140               	bnz	l3099
  1071  001144  5018               	movf	_ProgrammedPointer+3,w,c
  1072  001146  19A5               	xorwf	(_PacketFromPC+4)& (0+255),w,b
  1073  001148  A4D8               	btfss	status,2,c
  1074  00114A  D03C               	goto	u2260
  1075                           
  1076                           ; BSR set to: 0
  1077                           ;boot_18fxxjxx.c: 371: {
  1078                           ;boot_18fxxjxx.c: 372: for(i = 0; i < PacketFromPC.Size; i++)
  1079  00114C  0E00               	movlw	0
  1080  00114E  6E32               	movwf	ProcessIO@i+1,c
  1081  001150  0E00               	movlw	0
  1082  001152  6E31               	movwf	ProcessIO@i,c
  1083  001154  D02D               	goto	l97
  1084  001156                     
  1085                           ; BSR set to: 0
  1086                           ;boot_18fxxjxx.c: 373: {
  1087                           ;boot_18fxxjxx.c: 374: ProgrammingBuffer[BufferedDataIndex] = PacketFromPC.Data[i+(0x3A-
      +                          PacketFromPC.Size)];
  1088                           
  1089                           ; BSR set to: 0
  1090  001156  51A6               	movf	(_PacketFromPC+5)& (0+255),w,b
  1091  001158  6E58               	movwf	??_ProcessIO& (0+255),c
  1092  00115A  6A59               	clrf	(??_ProcessIO+1)& (0+255),c
  1093  00115C  1E58               	comf	??_ProcessIO,f,c
  1094  00115E  1E59               	comf	??_ProcessIO+1,f,c
  1095  001160  4A58               	infsnz	??_ProcessIO,f,c
  1096  001162  2A59               	incf	??_ProcessIO+1,f,c
  1097  001164  5031               	movf	ProcessIO@i,w,c
  1098  001166  2658               	addwf	??_ProcessIO,f,c
  1099  001168  5032               	movf	ProcessIO@i+1,w,c
  1100  00116A  2259               	addwfc	??_ProcessIO+1,f,c
  1101  00116C  0E40               	movlw	64
  1102  00116E  2658               	addwf	??_ProcessIO,f,c
  1103  001170  0E00               	movlw	0
  1104  001172  2259               	addwfc	??_ProcessIO+1,f,c
  1105  001174  0EA1               	movlw	low _PacketFromPC
  1106  001176  2458               	addwf	??_ProcessIO,w,c
  1107  001178  6ED9               	movwf	fsr2l,c
  1108  00117A  0E00               	movlw	high _PacketFromPC
  1109  00117C  2059               	addwfc	??_ProcessIO+1,w,c
  1110  00117E  6EDA               	movwf	fsr2h,c
  1111  001180  5042               	movf	_BufferedDataIndex,w,c
  1112  001182  0D01               	mullw	1
  1113  001184  0EAC               	movlw	low _ProgrammingBuffer
  1114  001186  24F3               	addwf	prodl,w,c
  1115  001188  6EE1               	movwf	fsr1l,c
  1116  00118A  0E04               	movlw	high _ProgrammingBuffer
  1117  00118C  20F4               	addwfc	prodh,w,c
  1118  00118E  6EE2               	movwf	fsr1h,c
  1119  001190  CFDF FFE7          	movff	indf2,indf1
  1120                           
  1121                           ; BSR set to: 0
  1122                           ;boot_18fxxjxx.c: 375: BufferedDataIndex++;
  1123  001194  2A42               	incf	_BufferedDataIndex,f,c
  1124                           
  1125                           ; BSR set to: 0
  1126                           ;boot_18fxxjxx.c: 376: ProgrammedPointer++;
  1127  001196  0E01               	movlw	1
  1128  001198  2615               	addwf	_ProgrammedPointer,f,c
  1129  00119A  0E00               	movlw	0
  1130  00119C  2216               	addwfc	_ProgrammedPointer+1,f,c
  1131  00119E  2217               	addwfc	_ProgrammedPointer+2,f,c
  1132  0011A0  2218               	addwfc	_ProgrammedPointer+3,f,c
  1133                           
  1134                           ; BSR set to: 0
  1135                           ;boot_18fxxjxx.c: 377: if(BufferedDataIndex == 0x3A)
  1136  0011A2  0E3A               	movlw	58
  1137  0011A4  1842               	xorwf	_BufferedDataIndex,w,c
  1138  0011A6  B4D8               	btfsc	status,2,c
  1139                           
  1140                           ; BSR set to: 0
  1141                           ;boot_18fxxjxx.c: 378: {
  1142                           ;boot_18fxxjxx.c: 379: WriteFlashSubBlock();
  1143  0011A8  ECD3  F00C         	call	_WriteFlashSubBlock	;wreg free
  1144  0011AC  4A31               	infsnz	ProcessIO@i,f,c
  1145  0011AE  2A32               	incf	ProcessIO@i+1,f,c
  1146  0011B0                     l97:
  1147  0011B0  0100               	movlb	0	; () banked
  1148  0011B2  51A6               	movf	(_PacketFromPC+5)& (0+255),w,b
  1149  0011B4  6E58               	movwf	??_ProcessIO& (0+255),c
  1150  0011B6  6A59               	clrf	(??_ProcessIO+1)& (0+255),c
  1151  0011B8  5058               	movf	??_ProcessIO,w,c
  1152  0011BA  5C31               	subwf	ProcessIO@i,w,c
  1153  0011BC  5059               	movf	??_ProcessIO+1,w,c
  1154  0011BE  5832               	subwfb	ProcessIO@i+1,w,c
  1155  0011C0  A0D8               	btfss	status,0,c
  1156  0011C2  D7C9               	goto	l98
  1157  0011C4                     u2260:
  1158  0011C4                     l3099:
  1159                           
  1160                           ; BSR set to: 0
  1161                           ;boot_18fxxjxx.c: 380: }
  1162                           ;boot_18fxxjxx.c: 381: }
  1163                           ;boot_18fxxjxx.c: 382: }
  1164                           ;boot_18fxxjxx.c: 386: BootState = 0x00;
  1165  0011C4  0E00               	movlw	0
  1166  0011C6  6E43               	movwf	_BootState,c
  1167                           
  1168                           ;boot_18fxxjxx.c: 387: break;
  1169  0011C8  0012               	return	
  1170  0011CA                     
  1171                           ; BSR set to: 0
  1172                           ;boot_18fxxjxx.c: 389: WriteFlashSubBlock();
  1173                           
  1174                           ; BSR set to: 0
  1175  0011CA  ECD3  F00C         	call	_WriteFlashSubBlock	;wreg free
  1176                           
  1177                           ;boot_18fxxjxx.c: 390: ProgrammedPointer = 0xFFFFFFFF;
  1178  0011CE  6815               	setf	_ProgrammedPointer,c
  1179  0011D0  6816               	setf	_ProgrammedPointer+1,c
  1180  0011D2  6817               	setf	_ProgrammedPointer+2,c
  1181  0011D4  6818               	setf	_ProgrammedPointer+3,c
  1182                           
  1183                           ;boot_18fxxjxx.c: 391: BootState = 0x00;
  1184  0011D6  0E00               	movlw	0
  1185  0011D8  6E43               	movwf	_BootState,c
  1186                           
  1187                           ;boot_18fxxjxx.c: 392: break;
  1188  0011DA  0012               	return	
  1189  0011DC                     
  1190                           ;boot_18fxxjxx.c: 395: PacketToPC.Command = 0x07;
  1191  0011DC  0E07               	movlw	7
  1192  0011DE  0100               	movlb	0	; () banked
  1193  0011E0  6F60               	movwf	_PacketToPC& (0+255),b
  1194                           
  1195                           ; BSR set to: 0
  1196                           ;boot_18fxxjxx.c: 396: PacketToPC.Address = PacketFromPC.Address;
  1197  0011E2  C0A2  F061         	movff	_PacketFromPC+1,_PacketToPC+1
  1198  0011E6  C0A3  F062         	movff	_PacketFromPC+2,_PacketToPC+2
  1199  0011EA  C0A4  F063         	movff	_PacketFromPC+3,_PacketToPC+3
  1200  0011EE  C0A5  F064         	movff	_PacketFromPC+4,_PacketToPC+4
  1201                           
  1202                           ; BSR set to: 0
  1203                           ;boot_18fxxjxx.c: 397: PacketToPC.Size = PacketFromPC.Size;
  1204  0011F2  C0A6  F065         	movff	_PacketFromPC+5,_PacketToPC+5
  1205                           
  1206                           ; BSR set to: 0
  1207                           ;boot_18fxxjxx.c: 400: TBLPTRU = PacketFromPC.Address >> 16;
  1208  0011F6  C0A4  FFF8         	movff	_PacketFromPC+3,tblptru	;volatile
  1209                           
  1210                           ; BSR set to: 0
  1211                           ;boot_18fxxjxx.c: 401: TBLPTRH = PacketFromPC.Address >> 8;
  1212  0011FA  C0A3  FFF7         	movff	_PacketFromPC+2,tblptrh	;volatile
  1213                           
  1214                           ; BSR set to: 0
  1215                           ;boot_18fxxjxx.c: 402: TBLPTRL = PacketFromPC.Address;
  1216  0011FE  C0A2  FFF6         	movff	_PacketFromPC+1,tblptrl	;volatile
  1217                           
  1218                           ;boot_18fxxjxx.c: 403: for(i = 0; i < PacketFromPC.Size; i++)
  1219  001202  0E00               	movlw	0
  1220  001204  6E32               	movwf	ProcessIO@i+1,c
  1221  001206  0E00               	movlw	0
  1222  001208  6E31               	movwf	ProcessIO@i,c
  1223  00120A  D01F               	goto	l103
  1224  00120C                     l104:
  1225                           
  1226                           ; BSR set to: 0
  1227  00120C  0009               	tblrd		*+	;# 
  1228                           
  1229                           ;boot_18fxxjxx.c: 408: PacketToPC.Data[i+((0x40 - 6) - PacketFromPC.Size)] = TABLAT;
  1230  00120E  0100               	movlb	0	; () banked
  1231  001210  51A6               	movf	(_PacketFromPC+5)& (0+255),w,b
  1232  001212  6E58               	movwf	??_ProcessIO& (0+255),c
  1233  001214  6A59               	clrf	(??_ProcessIO+1)& (0+255),c
  1234  001216  0E06               	movlw	6
  1235  001218  2658               	addwf	??_ProcessIO,f,c
  1236  00121A  0E00               	movlw	0
  1237  00121C  2259               	addwfc	??_ProcessIO+1,f,c
  1238  00121E  1E58               	comf	??_ProcessIO,f,c
  1239  001220  1E59               	comf	??_ProcessIO+1,f,c
  1240  001222  4A58               	infsnz	??_ProcessIO,f,c
  1241  001224  2A59               	incf	??_ProcessIO+1,f,c
  1242  001226  5031               	movf	ProcessIO@i,w,c
  1243  001228  2658               	addwf	??_ProcessIO,f,c
  1244  00122A  5032               	movf	ProcessIO@i+1,w,c
  1245  00122C  2259               	addwfc	??_ProcessIO+1,f,c
  1246  00122E  0E46               	movlw	70
  1247  001230  2658               	addwf	??_ProcessIO,f,c
  1248  001232  0E00               	movlw	0
  1249  001234  2259               	addwfc	??_ProcessIO+1,f,c
  1250  001236  0E60               	movlw	low _PacketToPC
  1251  001238  2458               	addwf	??_ProcessIO,w,c
  1252  00123A  6ED9               	movwf	fsr2l,c
  1253  00123C  0E00               	movlw	high _PacketToPC
  1254  00123E  2059               	addwfc	??_ProcessIO+1,w,c
  1255  001240  6EDA               	movwf	fsr2h,c
  1256  001242  CFF5 FFDF          	movff	tablat,indf2	;volatile
  1257                           
  1258                           ; BSR set to: 0
  1259  001246  4A31               	infsnz	ProcessIO@i,f,c
  1260  001248  2A32               	incf	ProcessIO@i+1,f,c
  1261  00124A                     l103:
  1262                           
  1263                           ; BSR set to: 0
  1264                           
  1265                           ; BSR set to: 0
  1266  00124A  51A6               	movf	(_PacketFromPC+5)& (0+255),w,b
  1267  00124C  6E58               	movwf	??_ProcessIO& (0+255),c
  1268  00124E  6A59               	clrf	(??_ProcessIO+1)& (0+255),c
  1269  001250  5058               	movf	??_ProcessIO,w,c
  1270  001252  5C31               	subwf	ProcessIO@i,w,c
  1271  001254  5059               	movf	??_ProcessIO+1,w,c
  1272  001256  5832               	subwfb	ProcessIO@i+1,w,c
  1273  001258  A0D8               	btfss	status,0,c
  1274  00125A  D7D8               	goto	l104
  1275                           
  1276                           ; BSR set to: 0
  1277                           ;boot_18fxxjxx.c: 409: }
  1278                           ;boot_18fxxjxx.c: 420: if(!ep1Bi.Stat.UOWN)
  1279  00125C  0104               	movlb	4	; () banked
  1280  00125E  BF10               	btfsc	16,7,b	;volatile
  1281  001260  0012               	return	
  1282                           
  1283                           ; BSR set to: 4
  1284                           ;boot_18fxxjxx.c: 421: {
  1285                           ;boot_18fxxjxx.c: 422: HIDTxReport((char *)&PacketToPC, 0x40);
  1286  001262  0E60               	movlw	low _PacketToPC
  1287  001264  6E4A               	movwf	HIDTxReport@buffer,c
  1288  001266  0E00               	movlw	high _PacketToPC
  1289  001268  6E4B               	movwf	HIDTxReport@buffer+1,c
  1290  00126A  0E40               	movlw	64
  1291  00126C  6E4C               	movwf	HIDTxReport@len,c
  1292  00126E  ECA6  F00D         	call	_HIDTxReport	;wreg free
  1293                           
  1294                           ;boot_18fxxjxx.c: 423: BootState = 0x00;
  1295  001272  0E00               	movlw	0
  1296  001274  6E43               	movwf	_BootState,c
  1297                           
  1298                           ;boot_18fxxjxx.c: 424: }
  1299                           ;boot_18fxxjxx.c: 425: break;
  1300  001276  0012               	return	
  1301  001278                     
  1302                           ;boot_18fxxjxx.c: 427: SignFlash();
  1303  001278  ECAF  F009         	call	_SignFlash	;wreg free
  1304                           
  1305                           ;boot_18fxxjxx.c: 428: BootState = 0x00;
  1306  00127C  0E00               	movlw	0
  1307  00127E  6E43               	movwf	_BootState,c
  1308                           
  1309                           ;boot_18fxxjxx.c: 429: break;
  1310  001280  0012               	return	
  1311  001282                     
  1312                           ;boot_18fxxjxx.c: 436: PacketToPC.Command = 0x0C;
  1313  001282  0E0C               	movlw	12
  1314  001284  0100               	movlb	0	; () banked
  1315  001286  6F60               	movwf	_PacketToPC& (0+255),b
  1316                           
  1317                           ;boot_18fxxjxx.c: 437: PacketToPC.BootloaderVersion = ((unsigned int)1 << 8)| 2;
  1318  001288  0E01               	movlw	1
  1319  00128A  6F62               	movwf	(_PacketToPC+2)& (0+255),b
  1320  00128C  0E02               	movlw	2
  1321  00128E  6F61               	movwf	(_PacketToPC+1)& (0+255),b
  1322                           
  1323                           ; BSR set to: 0
  1324                           ;boot_18fxxjxx.c: 438: PacketToPC.ApplicationVersion = *(const unsigned int*)0x2016;
  1325  001290  0E16               	movlw	22
  1326  001292  6EF6               	movwf	tblptrl,c
  1327  001294                     	if	1	;There is more than 1 active tblptr byte
  1328  001294  0E20               	movlw	32
  1329  001296  6EF7               	movwf	tblptrh,c
  1330  001298                     	endif
  1331  001298                     	if	0	;There are less than 3 active tblptr bytes
  1332  001298                     	endif
  1333  001298  0009               	tblrd		*+
  1334  00129A  CFF5 F063          	movff	tablat,_PacketToPC+3
  1335  00129E  000A               	tblrd		*-
  1336  0012A0  CFF5 F064          	movff	tablat,_PacketToPC+4
  1337                           
  1338                           ; BSR set to: 0
  1339                           ;boot_18fxxjxx.c: 439: PacketToPC.SignatureAddress = 0x2006;
  1340  0012A4  0E06               	movlw	6
  1341  0012A6  6F65               	movwf	(_PacketToPC+5)& (0+255),b
  1342  0012A8  0E20               	movlw	32
  1343  0012AA  6F66               	movwf	(_PacketToPC+6)& (0+255),b
  1344  0012AC  0E00               	movlw	0
  1345  0012AE  6F67               	movwf	(_PacketToPC+7)& (0+255),b
  1346  0012B0  0E00               	movlw	0
  1347  0012B2  6F68               	movwf	(_PacketToPC+8)& (0+255),b
  1348                           
  1349                           ; BSR set to: 0
  1350                           ;boot_18fxxjxx.c: 440: PacketToPC.SignatureValue = 0xABCD;
  1351  0012B4  0EAB               	movlw	171
  1352  0012B6  6F6A               	movwf	(_PacketToPC+10)& (0+255),b
  1353  0012B8  0ECD               	movlw	205
  1354  0012BA  6F69               	movwf	(_PacketToPC+9)& (0+255),b
  1355                           
  1356                           ; BSR set to: 0
  1357                           ;boot_18fxxjxx.c: 441: PacketToPC.ErasePageSize = 1024;
  1358  0012BC  0E00               	movlw	0
  1359  0012BE  6F6B               	movwf	(_PacketToPC+11)& (0+255),b
  1360  0012C0  0E04               	movlw	4
  1361  0012C2  6F6C               	movwf	(_PacketToPC+12)& (0+255),b
  1362  0012C4  0E00               	movlw	0
  1363  0012C6  6F6D               	movwf	(_PacketToPC+13)& (0+255),b
  1364  0012C8  0E00               	movlw	0
  1365  0012CA  6F6E               	movwf	(_PacketToPC+14)& (0+255),b
  1366                           
  1367                           ; BSR set to: 0
  1368                           ;boot_18fxxjxx.c: 442: PacketToPC.Config1LMask = 0xFF;
  1369  0012CC  696F               	setf	(_PacketToPC+15)& (0+255),b
  1370                           
  1371                           ; BSR set to: 0
  1372                           ;boot_18fxxjxx.c: 443: PacketToPC.Config1HMask = 0xFF;
  1373  0012CE  6970               	setf	(_PacketToPC+16)& (0+255),b
  1374                           
  1375                           ; BSR set to: 0
  1376                           ;boot_18fxxjxx.c: 444: PacketToPC.Config2LMask = 0xFF;
  1377  0012D0  6971               	setf	(_PacketToPC+17)& (0+255),b
  1378                           
  1379                           ; BSR set to: 0
  1380                           ;boot_18fxxjxx.c: 445: PacketToPC.Config2HMask = 0xFF;
  1381  0012D2  6972               	setf	(_PacketToPC+18)& (0+255),b
  1382                           
  1383                           ; BSR set to: 0
  1384                           ;boot_18fxxjxx.c: 446: PacketToPC.Config3LMask = 0xFF;
  1385  0012D4  6973               	setf	(_PacketToPC+19)& (0+255),b
  1386                           
  1387                           ; BSR set to: 0
  1388                           ;boot_18fxxjxx.c: 447: PacketToPC.Config3HMask = 0xFF;
  1389  0012D6  6974               	setf	(_PacketToPC+20)& (0+255),b
  1390                           
  1391                           ; BSR set to: 0
  1392                           ;boot_18fxxjxx.c: 448: PacketToPC.Config4LMask = 0xFF;
  1393  0012D8  6975               	setf	(_PacketToPC+21)& (0+255),b
  1394                           
  1395                           ; BSR set to: 0
  1396                           ;boot_18fxxjxx.c: 449: PacketToPC.Config4HMask = 0xFF;
  1397  0012DA  6976               	setf	(_PacketToPC+22)& (0+255),b
  1398                           
  1399                           ; BSR set to: 0
  1400                           ;boot_18fxxjxx.c: 450: PacketToPC.Config5LMask = 0x00;
  1401  0012DC  0E00               	movlw	0
  1402  0012DE  6F77               	movwf	(_PacketToPC+23)& (0+255),b
  1403                           
  1404                           ; BSR set to: 0
  1405                           ;boot_18fxxjxx.c: 451: PacketToPC.Config5HMask = 0x00;
  1406  0012E0  0E00               	movlw	0
  1407  0012E2  6F78               	movwf	(_PacketToPC+24)& (0+255),b
  1408                           
  1409                           ; BSR set to: 0
  1410                           ;boot_18fxxjxx.c: 452: PacketToPC.Config6LMask = 0x00;
  1411  0012E4  0E00               	movlw	0
  1412  0012E6  6F79               	movwf	(_PacketToPC+25)& (0+255),b
  1413                           
  1414                           ; BSR set to: 0
  1415                           ;boot_18fxxjxx.c: 453: PacketToPC.Config6HMask = 0x00;
  1416  0012E8  0E00               	movlw	0
  1417  0012EA  6F7A               	movwf	(_PacketToPC+26)& (0+255),b
  1418                           
  1419                           ; BSR set to: 0
  1420                           ;boot_18fxxjxx.c: 454: PacketToPC.Config7LMask = 0x00;
  1421  0012EC  0E00               	movlw	0
  1422  0012EE  6F7B               	movwf	(_PacketToPC+27)& (0+255),b
  1423                           
  1424                           ; BSR set to: 0
  1425                           ;boot_18fxxjxx.c: 455: PacketToPC.Config7HMask = 0x00;
  1426  0012F0  0E00               	movlw	0
  1427  0012F2  6F7C               	movwf	(_PacketToPC+28)& (0+255),b
  1428                           
  1429                           ; BSR set to: 0
  1430                           ;boot_18fxxjxx.c: 456: PacketToPC.Config8LMask = 0x00;
  1431  0012F4  0E00               	movlw	0
  1432  0012F6  6F7D               	movwf	(_PacketToPC+29)& (0+255),b
  1433                           
  1434                           ; BSR set to: 0
  1435                           ;boot_18fxxjxx.c: 457: PacketToPC.Config8HMask = 0x00;
  1436  0012F8  0E00               	movlw	0
  1437  0012FA  6F7E               	movwf	(_PacketToPC+30)& (0+255),b
  1438                           
  1439                           ; BSR set to: 0
  1440                           ;boot_18fxxjxx.c: 460: if(!ep1Bi.Stat.UOWN)
  1441  0012FC  0104               	movlb	4	; () banked
  1442  0012FE  BF10               	btfsc	16,7,b	;volatile
  1443  001300  0012               	return	
  1444                           
  1445                           ; BSR set to: 4
  1446                           ;boot_18fxxjxx.c: 461: {
  1447                           ;boot_18fxxjxx.c: 462: HIDTxReport((char *)&PacketToPC, 0x40);
  1448  001302  0E60               	movlw	low _PacketToPC
  1449  001304  6E4A               	movwf	HIDTxReport@buffer,c
  1450  001306  0E00               	movlw	high _PacketToPC
  1451  001308  6E4B               	movwf	HIDTxReport@buffer+1,c
  1452  00130A  0E40               	movlw	64
  1453  00130C  6E4C               	movwf	HIDTxReport@len,c
  1454  00130E  ECA6  F00D         	call	_HIDTxReport	;wreg free
  1455                           
  1456                           ;boot_18fxxjxx.c: 463: BootState = 0x00;
  1457  001312  0E00               	movlw	0
  1458  001314  6E43               	movwf	_BootState,c
  1459                           
  1460                           ;boot_18fxxjxx.c: 464: }
  1461                           ;boot_18fxxjxx.c: 465: break;
  1462  001316  0012               	return	
  1463  001318                     
  1464                           ;boot_18fxxjxx.c: 467: ResetDeviceCleanly();
  1465  001318  EC06  F000         	call	_ResetDeviceCleanly	;wreg free
  1466  00131C                     
  1467                           ;boot_18fxxjxx.c: 471: BootState = 0x00;
  1468  00131C  0E00               	movlw	0
  1469  00131E  6E43               	movwf	_BootState,c
  1470                           
  1471                           ;boot_18fxxjxx.c: 472: }
  1472  001320  0012               	return	
  1473  001322                     l83:
  1474  001322  0100               	movlb	0	; () banked
  1475  001324  51A1               	movf	_PacketFromPC& (0+255),w,b
  1476                           
  1477                           ; Switch size 1, requested type "space"
  1478                           ; Number of cases is 9, Range of values is 2 to 12
  1479                           ; switch strategies available:
  1480                           ; Name         Instructions Cycles
  1481                           ; simple_byte           28    15 (average)
  1482                           ;	Chosen strategy is simple_byte
  1483  001326  0A02               	xorlw	2	; case 2
  1484  001328  B4D8               	btfsc	status,2,c
  1485  00132A  D679               	goto	l84
  1486  00132C  0A01               	xorlw	1	; case 3
  1487  00132E  B4D8               	btfsc	status,2,c
  1488  001330  D6B6               	goto	l87
  1489  001332  0A07               	xorlw	7	; case 4
  1490  001334  B4D8               	btfsc	status,2,c
  1491  001336  D6CA               	goto	l90
  1492  001338  0A01               	xorlw	1	; case 5
  1493  00133A  B4D8               	btfsc	status,2,c
  1494  00133C  D6E8               	goto	l94
  1495  00133E  0A03               	xorlw	3	; case 6
  1496  001340  B4D8               	btfsc	status,2,c
  1497  001342  D743               	goto	l101
  1498  001344  0A01               	xorlw	1	; case 7
  1499  001346  B4D8               	btfsc	status,2,c
  1500  001348  D749               	goto	l102
  1501  00134A  0A0F               	xorlw	15	; case 8
  1502  00134C  B4D8               	btfsc	status,2,c
  1503  00134E  D7E4               	goto	l110
  1504  001350  0A01               	xorlw	1	; case 9
  1505  001352  B4D8               	btfsc	status,2,c
  1506  001354  D791               	goto	l107
  1507  001356  0A05               	xorlw	5	; case 12
  1508  001358  B4D8               	btfsc	status,2,c
  1509  00135A  D793               	goto	l108
  1510  00135C  D7DF               	goto	l111
  1511  00135E                     __end_of_ProcessIO:
  1512                           	opt stack 0
  1513                           stkptr	equ	0xFFC
  1514                           tblptru	equ	0xFF8
  1515                           tblptrh	equ	0xFF7
  1516                           tblptrl	equ	0xFF6
  1517                           tablat	equ	0xFF5
  1518                           prodh	equ	0xFF4
  1519                           prodl	equ	0xFF3
  1520                           intcon	equ	0xFF2
  1521                           indf1	equ	0xFE7
  1522                           fsr1h	equ	0xFE2
  1523                           fsr1l	equ	0xFE1
  1524                           indf2	equ	0xFDF
  1525                           fsr2h	equ	0xFDA
  1526                           fsr2l	equ	0xFD9
  1527                           status	equ	0xFD8
  1528                           
  1529 ;; *************** function _WriteFlashSubBlock *****************
  1530 ;; Defined at:
  1531 ;;		line 587 in file "../Source/c/boot_18fxxjxx.c"
  1532 ;; Parameters:    Size  Location     Type
  1533 ;;		None
  1534 ;; Auto vars:     Size  Location     Type
  1535 ;;  WordToWrite     2    0        unsigned int 
  1536 ;; Return value:  Size  Location     Type
  1537 ;;                  1    wreg      void 
  1538 ;; Registers used:
  1539 ;;		wreg, fsr2l, fsr2h, status,2, status,0, prodl, prodh, cstack
  1540 ;; Tracked objects:
  1541 ;;		On entry : 0/0
  1542 ;;		On exit  : 0/0
  1543 ;;		Unchanged: 0/0
  1544 ;; Data sizes:     COMRAM   BANK0   BANK1   BANK2   BANK3  BANK4h   BANK5   BANK6   BANK7   BANK8   BANK9  BANK10  BANK1
      +1  BANK12  BANK13  BANK14
  1545 ;;      Params:         0       0       0       0       0       0       0       0       0       0       0       0       
      +0       0       0       0
  1546 ;;      Locals:         0       0       0       0       0       0       0       0       0       0       0       0       
      +0       0       0       0
  1547 ;;      Temps:          4       0       0       0       0       0       0       0       0       0       0       0       
      +0       0       0       0
  1548 ;;      Totals:         4       0       0       0       0       0       0       0       0       0       0       0       
      +0       0       0       0
  1549 ;;Total ram usage:        4 bytes
  1550 ;; Hardware stack levels used:    1
  1551 ;; Hardware stack levels required when called:    2
  1552 ;; This function calls:
  1553 ;;		_UnlockAndActivate
  1554 ;; This function is called by:
  1555 ;;		_ProcessIO
  1556 ;; This function uses a non-reentrant model
  1557 ;;
  1558                           
  1559                           	psect	text3
  1560  0019A6                     __ptext3:
  1561                           	opt stack 0
  1562  0019A6                     _WriteFlashSubBlock:
  1563                           	opt stack 26
  1564                           
  1565                           ;boot_18fxxjxx.c: 589: static unsigned char i;
  1566                           ;boot_18fxxjxx.c: 590: uint16_t WordToWrite;
  1567                           ;boot_18fxxjxx.c: 591: static uint32_t Address;
  1568                           ;boot_18fxxjxx.c: 594: i = 0;
  1569                           
  1570                           ;incstack = 0
  1571  0019A6  0E00               	movlw	0
  1572  0019A8  6E41               	movwf	WriteFlashSubBlock@i,c
  1573                           
  1574                           ;boot_18fxxjxx.c: 595: while(BufferedDataIndex > 0)
  1575  0019AA  D043               	goto	l133
  1576  0019AC                     
  1577                           ;boot_18fxxjxx.c: 596: {
  1578                           ;boot_18fxxjxx.c: 598: Address = (ProgrammedPointer - BufferedDataIndex);
  1579  0019AC  5042               	movf	_BufferedDataIndex,w,c
  1580  0019AE  6E4B               	movwf	??_WriteFlashSubBlock& (0+255),c
  1581  0019B0  0E00               	movlw	0
  1582  0019B2  BE4B               	btfsc	??_WriteFlashSubBlock& (0+255),7,c
  1583  0019B4  0EFF               	movlw	255
  1584  0019B6  6E4C               	movwf	(??_WriteFlashSubBlock+1)& (0+255),c
  1585  0019B8  6E4D               	movwf	(??_WriteFlashSubBlock+2)& (0+255),c
  1586  0019BA  6E4E               	movwf	(??_WriteFlashSubBlock+3)& (0+255),c
  1587  0019BC  1E4B               	comf	??_WriteFlashSubBlock,f,c
  1588  0019BE  1E4C               	comf	??_WriteFlashSubBlock+1,f,c
  1589  0019C0  1E4D               	comf	??_WriteFlashSubBlock+2,f,c
  1590  0019C2  1E4E               	comf	??_WriteFlashSubBlock+3,f,c
  1591  0019C4  2A4B               	incf	??_WriteFlashSubBlock,f,c
  1592  0019C6  0E00               	movlw	0
  1593  0019C8  224C               	addwfc	??_WriteFlashSubBlock+1,f,c
  1594  0019CA  224D               	addwfc	??_WriteFlashSubBlock+2,f,c
  1595  0019CC  224E               	addwfc	??_WriteFlashSubBlock+3,f,c
  1596  0019CE  5015               	movf	_ProgrammedPointer,w,c
  1597  0019D0  244B               	addwf	??_WriteFlashSubBlock,w,c
  1598  0019D2  6E11               	movwf	WriteFlashSubBlock@Address,c
  1599  0019D4  5016               	movf	_ProgrammedPointer+1,w,c
  1600  0019D6  204C               	addwfc	??_WriteFlashSubBlock+1,w,c
  1601  0019D8  6E12               	movwf	WriteFlashSubBlock@Address+1,c
  1602  0019DA  5017               	movf	_ProgrammedPointer+2,w,c
  1603  0019DC  204D               	addwfc	??_WriteFlashSubBlock+2,w,c
  1604  0019DE  6E13               	movwf	WriteFlashSubBlock@Address+2,c
  1605  0019E0  5018               	movf	_ProgrammedPointer+3,w,c
  1606  0019E2  204E               	addwfc	??_WriteFlashSubBlock+3,w,c
  1607  0019E4  6E14               	movwf	WriteFlashSubBlock@Address+3,c
  1608                           
  1609                           ;boot_18fxxjxx.c: 599: TBLPTRU = Address >> 16;
  1610  0019E6  C013  FFF8         	movff	WriteFlashSubBlock@Address+2,tblptru	;volatile
  1611                           
  1612                           ;boot_18fxxjxx.c: 600: TBLPTRH = Address >> 8;
  1613  0019EA  C012  FFF7         	movff	WriteFlashSubBlock@Address+1,tblptrh	;volatile
  1614                           
  1615                           ;boot_18fxxjxx.c: 601: TBLPTRL = (uint8_t)Address;
  1616  0019EE  C011  FFF6         	movff	WriteFlashSubBlock@Address,tblptrl	;volatile
  1617                           
  1618                           ;boot_18fxxjxx.c: 603: TABLAT = ProgrammingBuffer[i];
  1619  0019F2  5041               	movf	WriteFlashSubBlock@i,w,c
  1620  0019F4  0D01               	mullw	1
  1621  0019F6  0EAC               	movlw	low _ProgrammingBuffer
  1622  0019F8  24F3               	addwf	prodl,w,c
  1623  0019FA  6ED9               	movwf	fsr2l,c
  1624  0019FC  0E04               	movlw	high _ProgrammingBuffer
  1625  0019FE  20F4               	addwfc	prodh,w,c
  1626  001A00  6EDA               	movwf	fsr2h,c
  1627  001A02  50DF               	movf	indf2,w,c
  1628  001A04  6EF5               	movwf	tablat,c	;volatile
  1629  001A06  000D               	tblwt		*+	;# 
  1630                           
  1631                           ;boot_18fxxjxx.c: 607: i++;
  1632  001A08  2A41               	incf	WriteFlashSubBlock@i,f,c
  1633                           
  1634                           ;boot_18fxxjxx.c: 608: TABLAT = ProgrammingBuffer[i];
  1635  001A0A  5041               	movf	WriteFlashSubBlock@i,w,c
  1636  001A0C  0D01               	mullw	1
  1637  001A0E  0EAC               	movlw	low _ProgrammingBuffer
  1638  001A10  24F3               	addwf	prodl,w,c
  1639  001A12  6ED9               	movwf	fsr2l,c
  1640  001A14  0E04               	movlw	high _ProgrammingBuffer
  1641  001A16  20F4               	addwfc	prodh,w,c
  1642  001A18  6EDA               	movwf	fsr2h,c
  1643  001A1A  50DF               	movf	indf2,w,c
  1644  001A1C  6EF5               	movwf	tablat,c	;volatile
  1645  001A1E  000C               	tblwt		*	;# 
  1646                           
  1647                           ;boot_18fxxjxx.c: 612: i++;
  1648  001A20  2A41               	incf	WriteFlashSubBlock@i,f,c
  1649                           
  1650                           ;boot_18fxxjxx.c: 628: EECON1 = 0b00100100;
  1651  001A22  0E24               	movlw	36
  1652  001A24  6EA6               	movwf	4006,c	;volsfr
  1653                           
  1654                           ;boot_18fxxjxx.c: 629: UnlockAndActivate(0xB5);
  1655  001A26  0EB5               	movlw	181
  1656  001A28  EC2C  F00F         	call	_UnlockAndActivate
  1657                           
  1658                           ;boot_18fxxjxx.c: 631: BufferedDataIndex = BufferedDataIndex - 0x02;
  1659  001A2C  5042               	movf	_BufferedDataIndex,w,c
  1660  001A2E  0FFE               	addlw	254
  1661  001A30  6E42               	movwf	_BufferedDataIndex,c
  1662  001A32                     l133:
  1663  001A32  5042               	movf	_BufferedDataIndex,w,c
  1664  001A34  0A80               	xorlw	128
  1665  001A36  0F7F               	addlw	-129
  1666  001A38  A0D8               	btfss	status,0,c
  1667  001A3A  0012               	return	
  1668  001A3C  D7B7               	goto	l134
  1669  001A3E                     __end_of_WriteFlashSubBlock:
  1670                           	opt stack 0
  1671                           stkptr	equ	0xFFC
  1672                           tblptru	equ	0xFF8
  1673                           tblptrh	equ	0xFF7
  1674                           tblptrl	equ	0xFF6
  1675                           tablat	equ	0xFF5
  1676                           prodh	equ	0xFF4
  1677                           prodl	equ	0xFF3
  1678                           intcon	equ	0xFF2
  1679                           indf1	equ	0xFE7
  1680                           fsr1h	equ	0xFE2
  1681                           fsr1l	equ	0xFE1
  1682                           indf2	equ	0xFDF
  1683                           fsr2h	equ	0xFDA
  1684                           fsr2l	equ	0xFD9
  1685                           status	equ	0xFD8
  1686                           
  1687 ;; *************** function _USBDeviceTasks *****************
  1688 ;; Defined at:
  1689 ;;		line 441 in file "../Source/c/usb_device.c"
  1690 ;; Parameters:    Size  Location     Type
  1691 ;;		None
  1692 ;; Auto vars:     Size  Location     Type
  1693 ;;		None
  1694 ;; Return value:  Size  Location     Type
  1695 ;;                  1    wreg      void 
  1696 ;; Registers used:
  1697 ;;		wreg, fsr1l, fsr1h, fsr2l, fsr2h, status,2, status,0, tblptrl, tblptrh, tblptru, prodl, prodh, cstack
  1698 ;; Tracked objects:
  1699 ;;		On entry : 0/0
  1700 ;;		On exit  : 0/0
  1701 ;;		Unchanged: 0/0
  1702 ;; Data sizes:     COMRAM   BANK0   BANK1   BANK2   BANK3  BANK4h   BANK5   BANK6   BANK7   BANK8   BANK9  BANK10  BANK1
      +1  BANK12  BANK13  BANK14
  1703 ;;      Params:         0       0       0       0       0       0       0       0       0       0       0       0       
      +0       0       0       0
  1704 ;;      Locals:         0       0       0       0       0       0       0       0       0       0       0       0       
      +0       0       0       0
  1705 ;;      Temps:          2       0       0       0       0       0       0       0       0       0       0       0       
      +0       0       0       0
  1706 ;;      Totals:         2       0       0       0       0       0       0       0       0       0       0       0       
      +0       0       0       0
  1707 ;;Total ram usage:        2 bytes
  1708 ;; Hardware stack levels used:    1
  1709 ;; Hardware stack levels required when called:    5
  1710 ;; This function calls:
  1711 ;;		_USBCheckBusStatus
  1712 ;;		_USBCtrlTrfInHandler
  1713 ;;		_USBCtrlTrfSetupHandler
  1714 ;;		_USBProtocolResetHandler
  1715 ;;		_USBSuspend
  1716 ;;		_USBWakeFromSuspend
  1717 ;; This function is called by:
  1718 ;;		_ProcessIO
  1719 ;;		_BootMain
  1720 ;; This function uses a non-reentrant model
  1721 ;;
  1722                           
  1723                           	psect	text4
  1724  001532                     __ptext4:
  1725                           	opt stack 0
  1726  001532                     _USBDeviceTasks:
  1727                           	opt stack 24
  1728                           
  1729                           ;usb_device.c: 443: static volatile BDT* pBDTEntry;
  1730                           ;usb_device.c: 444: static uint8_t i;
  1731                           ;usb_device.c: 447: USBCheckBusStatus();
  1732                           
  1733                           ;incstack = 0
  1734  001532  ECDF  F00F         	call	_USBCheckBusStatus	;wreg free
  1735                           
  1736                           ;usb_device.c: 452: if(usb_device_state == 0) return;
  1737  001536  5045               	movf	_usb_device_state,w,c
  1738  001538  B4D8               	btfsc	status,2,c
  1739  00153A  0012               	return	
  1740                           
  1741                           ;usb_device.c: 458: if(UIRbits.ACTVIF) USBWakeFromSuspend();
  1742  00153C  B462               	btfsc	3938,2,c	;volatile
  1743  00153E  ECC4  F00F         	call	_USBWakeFromSuspend	;wreg free
  1744                           
  1745                           ;usb_device.c: 463: if(UCONbits.SUSPND == 1) return;
  1746  001542  B265               	btfsc	3941,1,c	;volatile
  1747  001544  0012               	return	
  1748                           
  1749                           ;usb_device.c: 471: if(UIRbits.URSTIF) USBProtocolResetHandler();
  1750  001546  B062               	btfsc	3938,0,c	;volatile
  1751  001548  ECDC  F00D         	call	_USBProtocolResetHandler	;wreg free
  1752                           
  1753                           ;usb_device.c: 476: if(UIRbits.IDLEIF) USBSuspend();
  1754  00154C  B862               	btfsc	3938,4,c	;volatile
  1755  00154E  EC93  F00F         	call	_USBSuspend	;wreg free
  1756                           
  1757                           ;usb_device.c: 493: if(usb_device_state < 3) return;
  1758  001552  0E03               	movlw	3
  1759  001554  6045               	cpfslt	_usb_device_state,c
  1760  001556  D001               	goto	l447
  1761  001558  0012               	return	
  1762  00155A                     l447:
  1763                           
  1764                           ;usb_device.c: 498: for(bTRNIFCount = 0; bTRNIFCount < 4; bTRNIFCount++)
  1765  00155A  0E00               	movlw	0
  1766  00155C  6E3F               	movwf	_bTRNIFCount,c
  1767  00155E                     l2883:
  1768  00155E  0E03               	movlw	3
  1769  001560  643F               	cpfsgt	_bTRNIFCount,c
  1770  001562  D001               	goto	l448
  1771  001564  0012               	return	
  1772  001566                     l448:
  1773                           
  1774                           ;usb_device.c: 499: {
  1775                           ;usb_device.c: 500: if(UIRbits.TRNIF)
  1776  001566  A662               	btfss	3938,3,c	;volatile
  1777  001568  0012               	return	
  1778                           
  1779                           ;usb_device.c: 501: {
  1780                           ;usb_device.c: 503: USTATSave = USTAT;
  1781  00156A  CF64 F039          	movff	3940,_USTATSave	;volatile
  1782                           
  1783                           ;usb_device.c: 504: if((USTAT & 0x7C) == ((0x00<<3)|(0<<2)))
  1784  00156E  CF64 F04E          	movff	3940,??_USBDeviceTasks	;volatile
  1785  001572  0E7C               	movlw	124
  1786  001574  164E               	andwf	??_USBDeviceTasks,f,c
  1787  001576  A4D8               	btfss	status,2,c
  1788  001578  D03F               	goto	l451
  1789                           
  1790                           ;usb_device.c: 505: {
  1791                           ;usb_device.c: 507: if(USTATbits.PPBI == 0)
  1792  00157A  B264               	btfsc	3940,1,c	;volatile
  1793  00157C  D002               	goto	l452
  1794                           
  1795                           ;usb_device.c: 508: {
  1796                           ;usb_device.c: 510: pBDTEntry = &ep0BoEven;
  1797  00157E  0E00               	movlw	0
  1798  001580  D001               	goto	L3
  1799  001582                     l452:
  1800                           
  1801                           ;usb_device.c: 512: else
  1802                           ;usb_device.c: 513: {
  1803                           ;usb_device.c: 515: pBDTEntry = &ep0BoOdd;
  1804  001582  0E04               	movlw	4
  1805  001584                     L3:
  1806  001584  6E25               	movwf	USBDeviceTasks@pBDTEntry,c
  1807  001586  0E04               	movlw	4
  1808  001588  6E26               	movwf	USBDeviceTasks@pBDTEntry+1,c
  1809                           
  1810                           ;usb_device.c: 516: }
  1811                           ;usb_device.c: 519: UIRbits.TRNIF = 0;
  1812  00158A  9662               	bcf	3938,3,c	;volatile
  1813                           
  1814                           ;usb_device.c: 522: if(pBDTEntry->Stat.PID == 0b00001101)
  1815  00158C  C025  FFD9         	movff	USBDeviceTasks@pBDTEntry,fsr2l
  1816  001590  C026  FFDA         	movff	USBDeviceTasks@pBDTEntry+1,fsr2h
  1817  001594  30DF               	rrcf	indf2,w,c
  1818  001596  32E8               	rrcf	wreg,f,c
  1819  001598  0B0F               	andlw	15
  1820  00159A  0A0D               	xorlw	13
  1821  00159C  A4D8               	btfss	status,2,c
  1822  00159E  D035               	goto	l461
  1823                           
  1824                           ;usb_device.c: 523: {
  1825                           ;usb_device.c: 526: for(i = 0; i < sizeof(CTRL_TRF_SETUP); i++)
  1826  0015A0  0E00               	movlw	0
  1827  0015A2  6E37               	movwf	USBDeviceTasks@i,c
  1828  0015A4                     l2903:
  1829  0015A4  0E07               	movlw	7
  1830  0015A6  6437               	cpfsgt	USBDeviceTasks@i,c
  1831  0015A8  D001               	goto	l455
  1832  0015AA  D023               	goto	u2040
  1833  0015AC                     l455:
  1834                           
  1835                           ;usb_device.c: 527: {
  1836                           ;usb_device.c: 528: SetupPkt._byte[i] = *pBDTEntry->ADR++;
  1837  0015AC  EE20 F002          	lfsr	2,2
  1838  0015B0  5025               	movf	USBDeviceTasks@pBDTEntry,w,c
  1839  0015B2  26D9               	addwf	fsr2l,f,c
  1840  0015B4  5026               	movf	USBDeviceTasks@pBDTEntry+1,w,c
  1841  0015B6  22DA               	addwfc	fsr2h,f,c
  1842  0015B8  CFDE F04E          	movff	postinc2,??_USBDeviceTasks
  1843  0015BC  CFDD F04F          	movff	postdec2,??_USBDeviceTasks+1
  1844  0015C0  C04E  FFD9         	movff	??_USBDeviceTasks,fsr2l
  1845  0015C4  C04F  FFDA         	movff	??_USBDeviceTasks+1,fsr2h
  1846  0015C8  5037               	movf	USBDeviceTasks@i,w,c
  1847  0015CA  0D01               	mullw	1
  1848  0015CC  0E01               	movlw	low _SetupPkt
  1849  0015CE  24F3               	addwf	prodl,w,c
  1850  0015D0  6EE1               	movwf	fsr1l,c
  1851  0015D2  0E00               	movlw	high _SetupPkt
  1852  0015D4  20F4               	addwfc	prodh,w,c
  1853  0015D6  6EE2               	movwf	fsr1h,c
  1854  0015D8  CFDF FFE7          	movff	indf2,indf1
  1855  0015DC  EE20 F002          	lfsr	2,2
  1856  0015E0  5025               	movf	USBDeviceTasks@pBDTEntry,w,c
  1857  0015E2  26D9               	addwf	fsr2l,f,c
  1858  0015E4  5026               	movf	USBDeviceTasks@pBDTEntry+1,w,c
  1859  0015E6  22DA               	addwfc	fsr2h,f,c
  1860  0015E8  2ADE               	incf	postinc2,f,c
  1861  0015EA  0E00               	movlw	0
  1862  0015EC  22DD               	addwfc	postdec2,f,c
  1863  0015EE  2A37               	incf	USBDeviceTasks@i,f,c
  1864  0015F0  D7D9               	goto	l2903
  1865  0015F2                     u2040:
  1866                           
  1867                           ;usb_device.c: 529: }
  1868                           ;usb_device.c: 533: USBCtrlTrfSetupHandler();
  1869  0015F2  ECB6  F00E         	call	_USBCtrlTrfSetupHandler	;wreg free
  1870                           
  1871                           ;usb_device.c: 539: }
  1872                           ;usb_device.c: 540: }
  1873                           
  1874                           ;usb_device.c: 535: else
  1875                           ;usb_device.c: 536: {
  1876                           ;usb_device.c: 538: ;
  1877                           
  1878                           ;usb_device.c: 534: }
  1879  0015F6  D009               	goto	l461
  1880  0015F8                     l451:
  1881                           
  1882                           ;usb_device.c: 541: else if(USTAT == ((0x00<<3)|(1<<2)))
  1883  0015F8  0E04               	movlw	4
  1884  0015FA  1864               	xorwf	3940,w,c	;volatile
  1885  0015FC  A4D8               	btfss	status,2,c
  1886  0015FE  D004               	goto	l459
  1887                           
  1888                           ;usb_device.c: 542: {
  1889                           ;usb_device.c: 544: UIRbits.TRNIF = 0;
  1890  001600  9662               	bcf	3938,3,c	;volatile
  1891                           
  1892                           ;usb_device.c: 545: USBCtrlTrfInHandler();
  1893  001602  EC91  F00E         	call	_USBCtrlTrfInHandler	;wreg free
  1894                           
  1895                           ;usb_device.c: 546: }
  1896  001606  D001               	goto	l461
  1897  001608                     l459:
  1898                           
  1899                           ;usb_device.c: 547: else
  1900                           ;usb_device.c: 548: {
  1901                           ;usb_device.c: 553: UIRbits.TRNIF = 0;
  1902  001608  9662               	bcf	3938,3,c	;volatile
  1903  00160A                     l461:
  1904  00160A  2A3F               	incf	_bTRNIFCount,f,c
  1905  00160C  D7A8               	goto	l2883
  1906  00160E                     __end_of_USBDeviceTasks:
  1907                           	opt stack 0
  1908                           stkptr	equ	0xFFC
  1909                           tblptru	equ	0xFF8
  1910                           tblptrh	equ	0xFF7
  1911                           tblptrl	equ	0xFF6
  1912                           tablat	equ	0xFF5
  1913                           prodh	equ	0xFF4
  1914                           prodl	equ	0xFF3
  1915                           intcon	equ	0xFF2
  1916                           wreg	equ	0xFE8
  1917                           indf1	equ	0xFE7
  1918                           fsr1h	equ	0xFE2
  1919                           fsr1l	equ	0xFE1
  1920                           indf2	equ	0xFDF
  1921                           postinc2	equ	0xFDE
  1922                           postdec2	equ	0xFDD
  1923                           fsr2h	equ	0xFDA
  1924                           fsr2l	equ	0xFD9
  1925                           status	equ	0xFD8
  1926                           
  1927 ;; *************** function _USBWakeFromSuspend *****************
  1928 ;; Defined at:
  1929 ;;		line 679 in file "../Source/c/usb_device.c"
  1930 ;; Parameters:    Size  Location     Type
  1931 ;;		None
  1932 ;; Auto vars:     Size  Location     Type
  1933 ;;		None
  1934 ;; Return value:  Size  Location     Type
  1935 ;;                  1    wreg      void 
  1936 ;; Registers used:
  1937 ;;		wreg, status,2, status,0, cstack
  1938 ;; Tracked objects:
  1939 ;;		On entry : 0/0
  1940 ;;		On exit  : 0/0
  1941 ;;		Unchanged: 0/0
  1942 ;; Data sizes:     COMRAM   BANK0   BANK1   BANK2   BANK3  BANK4h   BANK5   BANK6   BANK7   BANK8   BANK9  BANK10  BANK1
      +1  BANK12  BANK13  BANK14
  1943 ;;      Params:         0       0       0       0       0       0       0       0       0       0       0       0       
      +0       0       0       0
  1944 ;;      Locals:         0       0       0       0       0       0       0       0       0       0       0       0       
      +0       0       0       0
  1945 ;;      Temps:          0       0       0       0       0       0       0       0       0       0       0       0       
      +0       0       0       0
  1946 ;;      Totals:         0       0       0       0       0       0       0       0       0       0       0       0       
      +0       0       0       0
  1947 ;;Total ram usage:        0 bytes
  1948 ;; Hardware stack levels used:    1
  1949 ;; Hardware stack levels required when called:    3
  1950 ;; This function calls:
  1951 ;;		_USBCBWakeFromSuspend
  1952 ;; This function is called by:
  1953 ;;		_USBDeviceTasks
  1954 ;; This function uses a non-reentrant model
  1955 ;;
  1956                           
  1957                           	psect	text5
  1958  001F88                     __ptext5:
  1959                           	opt stack 0
  1960  001F88                     _USBWakeFromSuspend:
  1961                           	opt stack 25
  1962                           
  1963                           ;usb_device.c: 684: USBCBWakeFromSuspend();
  1964                           
  1965                           ;incstack = 0
  1966  001F88  ECE7  F00F         	call	_USBCBWakeFromSuspend	;wreg free
  1967                           
  1968                           ;usb_device.c: 687: UCONbits.SUSPND = 0;
  1969  001F8C  9265               	bcf	3941,1,c	;volatile
  1970                           
  1971                           ;usb_device.c: 688: UIEbits.ACTVIE = 0;
  1972  001F8E  010F               	movlb	15	; () banked
  1973  001F90  9536               	bcf	54,2,b	;volatile
  1974                           
  1975                           ;usb_device.c: 689: while(UIRbits.ACTVIF){UIRbits.ACTVIF = 0;}
  1976  001F92  D001               	goto	l469
  1977  001F94                     l470:
  1978  001F94  9462               	bcf	3938,2,c	;volatile
  1979  001F96                     l469:
  1980  001F96  A462               	btfss	3938,2,c	;volatile
  1981  001F98  0012               	return	
  1982  001F9A  D7FC               	goto	l470
  1983  001F9C                     __end_of_USBWakeFromSuspend:
  1984                           	opt stack 0
  1985                           stkptr	equ	0xFFC
  1986                           tblptru	equ	0xFF8
  1987                           tblptrh	equ	0xFF7
  1988                           tblptrl	equ	0xFF6
  1989                           tablat	equ	0xFF5
  1990                           prodh	equ	0xFF4
  1991                           prodl	equ	0xFF3
  1992                           intcon	equ	0xFF2
  1993                           wreg	equ	0xFE8
  1994                           indf1	equ	0xFE7
  1995                           fsr1h	equ	0xFE2
  1996                           fsr1l	equ	0xFE1
  1997                           indf2	equ	0xFDF
  1998                           postinc2	equ	0xFDE
  1999                           postdec2	equ	0xFDD
  2000                           fsr2h	equ	0xFDA
  2001                           fsr2l	equ	0xFD9
  2002                           status	equ	0xFD8
  2003                           
  2004 ;; *************** function _USBCBWakeFromSuspend *****************
  2005 ;; Defined at:
  2006 ;;		line 841 in file "../Source/c/main.c"
  2007 ;; Parameters:    Size  Location     Type
  2008 ;;		None
  2009 ;; Auto vars:     Size  Location     Type
  2010 ;;		None
  2011 ;; Return value:  Size  Location     Type
  2012 ;;                  1    wreg      void 
  2013 ;; Registers used:
  2014 ;;		wreg, status,2, status,0, cstack
  2015 ;; Tracked objects:
  2016 ;;		On entry : 0/0
  2017 ;;		On exit  : 0/0
  2018 ;;		Unchanged: 0/0
  2019 ;; Data sizes:     COMRAM   BANK0   BANK1   BANK2   BANK3  BANK4h   BANK5   BANK6   BANK7   BANK8   BANK9  BANK10  BANK1
      +1  BANK12  BANK13  BANK14
  2020 ;;      Params:         0       0       0       0       0       0       0       0       0       0       0       0       
      +0       0       0       0
  2021 ;;      Locals:         0       0       0       0       0       0       0       0       0       0       0       0       
      +0       0       0       0
  2022 ;;      Temps:          0       0       0       0       0       0       0       0       0       0       0       0       
      +0       0       0       0
  2023 ;;      Totals:         0       0       0       0       0       0       0       0       0       0       0       0       
      +0       0       0       0
  2024 ;;Total ram usage:        0 bytes
  2025 ;; Hardware stack levels used:    1
  2026 ;; Hardware stack levels required when called:    2
  2027 ;; This function calls:
  2028 ;;		_DelayRoutine
  2029 ;; This function is called by:
  2030 ;;		_USBWakeFromSuspend
  2031 ;; This function uses a non-reentrant model
  2032 ;;
  2033                           
  2034                           	psect	text6
  2035  001FCE                     __ptext6:
  2036                           	opt stack 0
  2037  001FCE                     _USBCBWakeFromSuspend:
  2038                           	opt stack 25
  2039                           
  2040                           ;main.c: 847: DelayRoutine(0x300);
  2041                           
  2042                           ;incstack = 0
  2043  001FCE  0E03               	movlw	3
  2044  001FD0  6E4B               	movwf	DelayRoutine@DelayAmount+1,c
  2045  001FD2  0E00               	movlw	0
  2046  001FD4  6E4A               	movwf	DelayRoutine@DelayAmount,c
  2047  001FD6  ECB9  F00F         	call	_DelayRoutine	;wreg free
  2048  001FDA  0012               	return		;funcret
  2049  001FDC                     __end_of_USBCBWakeFromSuspend:
  2050                           	opt stack 0
  2051                           stkptr	equ	0xFFC
  2052                           tblptru	equ	0xFF8
  2053                           tblptrh	equ	0xFF7
  2054                           tblptrl	equ	0xFF6
  2055                           tablat	equ	0xFF5
  2056                           prodh	equ	0xFF4
  2057                           prodl	equ	0xFF3
  2058                           intcon	equ	0xFF2
  2059                           wreg	equ	0xFE8
  2060                           indf1	equ	0xFE7
  2061                           fsr1h	equ	0xFE2
  2062                           fsr1l	equ	0xFE1
  2063                           indf2	equ	0xFDF
  2064                           postinc2	equ	0xFDE
  2065                           postdec2	equ	0xFDD
  2066                           fsr2h	equ	0xFDA
  2067                           fsr2l	equ	0xFD9
  2068                           status	equ	0xFD8
  2069                           
  2070 ;; *************** function _USBSuspend *****************
  2071 ;; Defined at:
  2072 ;;		line 587 in file "../Source/c/usb_device.c"
  2073 ;; Parameters:    Size  Location     Type
  2074 ;;		None
  2075 ;; Auto vars:     Size  Location     Type
  2076 ;;		None
  2077 ;; Return value:  Size  Location     Type
  2078 ;;                  1    wreg      void 
  2079 ;; Registers used:
  2080 ;;		wreg, status,2, status,0, cstack
  2081 ;; Tracked objects:
  2082 ;;		On entry : 0/0
  2083 ;;		On exit  : 0/0
  2084 ;;		Unchanged: 0/0
  2085 ;; Data sizes:     COMRAM   BANK0   BANK1   BANK2   BANK3  BANK4h   BANK5   BANK6   BANK7   BANK8   BANK9  BANK10  BANK1
      +1  BANK12  BANK13  BANK14
  2086 ;;      Params:         0       0       0       0       0       0       0       0       0       0       0       0       
      +0       0       0       0
  2087 ;;      Locals:         0       0       0       0       0       0       0       0       0       0       0       0       
      +0       0       0       0
  2088 ;;      Temps:          0       0       0       0       0       0       0       0       0       0       0       0       
      +0       0       0       0
  2089 ;;      Totals:         0       0       0       0       0       0       0       0       0       0       0       0       
      +0       0       0       0
  2090 ;;Total ram usage:        0 bytes
  2091 ;; Hardware stack levels used:    1
  2092 ;; Hardware stack levels required when called:    1
  2093 ;; This function calls:
  2094 ;;		_USBCBSuspend
  2095 ;; This function is called by:
  2096 ;;		_USBDeviceTasks
  2097 ;; This function uses a non-reentrant model
  2098 ;;
  2099                           
  2100                           	psect	text7
  2101  001F26                     __ptext7:
  2102                           	opt stack 0
  2103  001F26                     _USBSuspend:
  2104                           	opt stack 27
  2105                           
  2106                           ;usb_device.c: 589: static unsigned char UIESave;
  2107                           ;usb_device.c: 624: UIESave = UIE;
  2108                           
  2109                           ;incstack = 0
  2110  001F26  CF36 F036          	movff	3894,USBSuspend@UIESave	;volatile
  2111                           
  2112                           ;usb_device.c: 625: UIE = 0b00000100;
  2113  001F2A  0E04               	movlw	4
  2114  001F2C  010F               	movlb	15	; () banked
  2115  001F2E  6F36               	movwf	54,b	;volatile
  2116                           
  2117                           ; BSR set to: 15
  2118                           ;usb_device.c: 629: UIRbits.IDLEIF = 0;
  2119  001F30  9862               	bcf	3938,4,c	;volatile
  2120                           
  2121                           ; BSR set to: 15
  2122                           ;usb_device.c: 630: UCONbits.SUSPND = 1;
  2123  001F32  8265               	bsf	3941,1,c	;volatile
  2124                           
  2125                           ; BSR set to: 15
  2126                           ;usb_device.c: 637: PIR2bits.USBIF = 0;
  2127  001F34  98A1               	bcf	4001,4,c	;volatile
  2128                           
  2129                           ; BSR set to: 15
  2130                           ;usb_device.c: 641: PIE2bits.USBIE = 1;
  2131  001F36  88A0               	bsf	4000,4,c	;volatile
  2132                           
  2133                           ; BSR set to: 15
  2134                           ;usb_device.c: 650: USBCBSuspend();
  2135  001F38  ECA3  F00F         	call	_USBCBSuspend	;wreg free
  2136                           
  2137                           ;usb_device.c: 657: PIE2bits.USBIE = 0;
  2138  001F3C  98A0               	bcf	4000,4,c	;volatile
  2139                           
  2140                           ;usb_device.c: 658: UIE |= UIESave;
  2141  001F3E  5036               	movf	USBSuspend@UIESave,w,c
  2142  001F40  010F               	movlb	15	; () banked
  2143  001F42  1336               	iorwf	54,f,b	;volatile
  2144                           
  2145                           ; BSR set to: 15
  2146  001F44  0012               	return		;funcret
  2147  001F46                     __end_of_USBSuspend:
  2148                           	opt stack 0
  2149                           stkptr	equ	0xFFC
  2150                           tblptru	equ	0xFF8
  2151                           tblptrh	equ	0xFF7
  2152                           tblptrl	equ	0xFF6
  2153                           tablat	equ	0xFF5
  2154                           prodh	equ	0xFF4
  2155                           prodl	equ	0xFF3
  2156                           intcon	equ	0xFF2
  2157                           wreg	equ	0xFE8
  2158                           indf1	equ	0xFE7
  2159                           fsr1h	equ	0xFE2
  2160                           fsr1l	equ	0xFE1
  2161                           indf2	equ	0xFDF
  2162                           postinc2	equ	0xFDE
  2163                           postdec2	equ	0xFDD
  2164                           fsr2h	equ	0xFDA
  2165                           fsr2l	equ	0xFD9
  2166                           status	equ	0xFD8
  2167                           
  2168 ;; *************** function _USBCBSuspend *****************
  2169 ;; Defined at:
  2170 ;;		line 877 in file "../Source/c/main.c"
  2171 ;; Parameters:    Size  Location     Type
  2172 ;;		None
  2173 ;; Auto vars:     Size  Location     Type
  2174 ;;		None
  2175 ;; Return value:  Size  Location     Type
  2176 ;;                  1    wreg      void 
  2177 ;; Registers used:
  2178 ;;		None
  2179 ;; Tracked objects:
  2180 ;;		On entry : 0/0
  2181 ;;		On exit  : 0/0
  2182 ;;		Unchanged: 0/0
  2183 ;; Data sizes:     COMRAM   BANK0   BANK1   BANK2   BANK3  BANK4h   BANK5   BANK6   BANK7   BANK8   BANK9  BANK10  BANK1
      +1  BANK12  BANK13  BANK14
  2184 ;;      Params:         0       0       0       0       0       0       0       0       0       0       0       0       
      +0       0       0       0
  2185 ;;      Locals:         0       0       0       0       0       0       0       0       0       0       0       0       
      +0       0       0       0
  2186 ;;      Temps:          0       0       0       0       0       0       0       0       0       0       0       0       
      +0       0       0       0
  2187 ;;      Totals:         0       0       0       0       0       0       0       0       0       0       0       0       
      +0       0       0       0
  2188 ;;Total ram usage:        0 bytes
  2189 ;; Hardware stack levels used:    1
  2190 ;; This function calls:
  2191 ;;		Nothing
  2192 ;; This function is called by:
  2193 ;;		_USBSuspend
  2194 ;; This function uses a non-reentrant model
  2195 ;;
  2196                           
  2197                           	psect	text8
  2198  001F46                     __ptext8:
  2199                           	opt stack 0
  2200  001F46                     _USBCBSuspend:
  2201                           	opt stack 27
  2202                           
  2203                           ;main.c: 879: static unsigned char OSCCONSave;
  2204                           ;main.c: 883: LATDbits.LATD4 = 0;
  2205                           
  2206                           ; BSR set to: 15
  2207                           ;incstack = 0
  2208  001F46  988C               	bcf	3980,4,c	;volatile
  2209                           
  2210                           ;main.c: 889: OSCCONSave = OSCCON;
  2211  001F48  CFD3 F040          	movff	4051,USBCBSuspend@OSCCONSave	;volatile
  2212  001F4C                     l249:
  2213  001F4C  0003               	sleep		;# 
  2214  001F4E  B8A1               	btfsc	4001,4,c	;volatile
  2215  001F50  D002               	goto	u1610
  2216  001F52  A6D0               	btfss	4048,3,c	;volatile
  2217  001F54  D7FB               	goto	l249
  2218  001F56                     u1610:
  2219                           
  2220                           ;main.c: 898: }
  2221                           ;main.c: 901: OSCCON = OSCCONSave;
  2222  001F56  C040  FFD3         	movff	USBCBSuspend@OSCCONSave,4051	;volatile
  2223  001F5A  0012               	return		;funcret
  2224  001F5C                     __end_of_USBCBSuspend:
  2225                           	opt stack 0
  2226                           stkptr	equ	0xFFC
  2227                           tblptru	equ	0xFF8
  2228                           tblptrh	equ	0xFF7
  2229                           tblptrl	equ	0xFF6
  2230                           tablat	equ	0xFF5
  2231                           prodh	equ	0xFF4
  2232                           prodl	equ	0xFF3
  2233                           intcon	equ	0xFF2
  2234                           wreg	equ	0xFE8
  2235                           indf1	equ	0xFE7
  2236                           fsr1h	equ	0xFE2
  2237                           fsr1l	equ	0xFE1
  2238                           indf2	equ	0xFDF
  2239                           postinc2	equ	0xFDE
  2240                           postdec2	equ	0xFDD
  2241                           fsr2h	equ	0xFDA
  2242                           fsr2l	equ	0xFD9
  2243                           status	equ	0xFD8
  2244                           
  2245 ;; *************** function _USBCtrlTrfSetupHandler *****************
  2246 ;; Defined at:
  2247 ;;		line 790 in file "../Source/c/usb_device.c"
  2248 ;; Parameters:    Size  Location     Type
  2249 ;;		None
  2250 ;; Auto vars:     Size  Location     Type
  2251 ;;		None
  2252 ;; Return value:  Size  Location     Type
  2253 ;;                  1    wreg      void 
  2254 ;; Registers used:
  2255 ;;		wreg, fsr1l, fsr1h, fsr2l, fsr2h, status,2, status,0, tblptrl, tblptrh, tblptru, prodl, prodh, cstack
  2256 ;; Tracked objects:
  2257 ;;		On entry : 0/0
  2258 ;;		On exit  : 0/0
  2259 ;;		Unchanged: 0/0
  2260 ;; Data sizes:     COMRAM   BANK0   BANK1   BANK2   BANK3  BANK4h   BANK5   BANK6   BANK7   BANK8   BANK9  BANK10  BANK1
      +1  BANK12  BANK13  BANK14
  2261 ;;      Params:         0       0       0       0       0       0       0       0       0       0       0       0       
      +0       0       0       0
  2262 ;;      Locals:         0       0       0       0       0       0       0       0       0       0       0       0       
      +0       0       0       0
  2263 ;;      Temps:          0       0       0       0       0       0       0       0       0       0       0       0       
      +0       0       0       0
  2264 ;;      Totals:         0       0       0       0       0       0       0       0       0       0       0       0       
      +0       0       0       0
  2265 ;;Total ram usage:        0 bytes
  2266 ;; Hardware stack levels used:    1
  2267 ;; Hardware stack levels required when called:    4
  2268 ;; This function calls:
  2269 ;;		_USBCBCheckOtherReq
  2270 ;;		_USBCheckStdRequest
  2271 ;;		_USBCtrlEPServiceComplete
  2272 ;; This function is called by:
  2273 ;;		_USBDeviceTasks
  2274 ;; This function uses a non-reentrant model
  2275 ;;
  2276                           
  2277                           	psect	text9
  2278  001D6C                     __ptext9:
  2279                           	opt stack 0
  2280  001D6C                     _USBCtrlTrfSetupHandler:
  2281                           	opt stack 24
  2282                           
  2283                           ;usb_device.c: 797: ep0Bi.Stat._byte = 0x00;
  2284                           
  2285                           ;incstack = 0
  2286  001D6C  0E00               	movlw	0
  2287  001D6E  0104               	movlb	4	; () banked
  2288  001D70  6F08               	movwf	8,b	;volatile
  2289                           
  2290                           ;usb_device.c: 798: short_pkt_status = 0;
  2291  001D72  0E00               	movlw	0
  2292  001D74  6E3C               	movwf	_short_pkt_status,c
  2293                           
  2294                           ; BSR set to: 4
  2295                           ;usb_device.c: 803: if(ep0BoEven.Stat.UOWN == 1)
  2296  001D76  AF00               	btfss	0,7,b	;volatile
  2297  001D78  D004               	goto	l481
  2298                           
  2299                           ; BSR set to: 4
  2300                           ;usb_device.c: 804: {
  2301                           ;usb_device.c: 805: ep0BoEven.Stat._byte = 0x00;
  2302  001D7A  0E00               	movlw	0
  2303  001D7C  6F00               	movwf	0,b	;volatile
  2304                           
  2305                           ;usb_device.c: 806: EP0OutOddNeedsArmingNext = 0;
  2306  001D7E  0E00               	movlw	0
  2307  001D80  6E3B               	movwf	_EP0OutOddNeedsArmingNext,c
  2308  001D82                     l481:
  2309                           
  2310                           ; BSR set to: 4
  2311                           ;usb_device.c: 807: }
  2312                           ;usb_device.c: 808: if(ep0BoOdd.Stat.UOWN == 1)
  2313                           
  2314                           ; BSR set to: 4
  2315  001D82  AF04               	btfss	4,7,b	;volatile
  2316  001D84  D004               	goto	l482
  2317                           
  2318                           ; BSR set to: 4
  2319                           ;usb_device.c: 809: {
  2320                           ;usb_device.c: 810: ep0BoOdd.Stat._byte = 0x00;
  2321  001D86  0E00               	movlw	0
  2322  001D88  6F04               	movwf	4,b	;volatile
  2323                           
  2324                           ;usb_device.c: 811: EP0OutOddNeedsArmingNext = 1;
  2325  001D8A  0E01               	movlw	1
  2326  001D8C  6E3B               	movwf	_EP0OutOddNeedsArmingNext,c
  2327  001D8E                     l482:
  2328                           
  2329                           ; BSR set to: 4
  2330                           ;usb_device.c: 812: }
  2331                           ;usb_device.c: 813: ctrl_trf_state = 0;
  2332  001D8E  0E00               	movlw	0
  2333  001D90  6E3E               	movwf	_ctrl_trf_state,c
  2334                           
  2335                           ;usb_device.c: 814: ctrl_trf_session_owner = 0;
  2336  001D92  0E00               	movlw	0
  2337  001D94  6E3D               	movwf	_ctrl_trf_session_owner,c
  2338                           
  2339                           ;usb_device.c: 815: wCount.Val = 0;
  2340  001D96  0E00               	movlw	0
  2341  001D98  6E2A               	movwf	_wCount+1,c
  2342  001D9A  0E00               	movlw	0
  2343  001D9C  6E29               	movwf	_wCount,c
  2344                           
  2345                           ; BSR set to: 4
  2346                           ;usb_device.c: 816: UCONbits.PKTDIS = 0;
  2347  001D9E  9865               	bcf	3941,4,c	;volatile
  2348                           
  2349                           ; BSR set to: 4
  2350                           ;usb_device.c: 822: USBCheckStdRequest();
  2351  001DA0  EC6D  F00B         	call	_USBCheckStdRequest	;wreg free
  2352                           
  2353                           ;usb_device.c: 823: USBCBCheckOtherReq();
  2354  001DA4  ECF3  F00F         	call	_USBCBCheckOtherReq	;wreg free
  2355                           
  2356                           ;usb_device.c: 826: USBCtrlEPServiceComplete();
  2357  001DA8  EC28  F00C         	call	_USBCtrlEPServiceComplete	;wreg free
  2358  001DAC  0012               	return		;funcret
  2359  001DAE                     __end_of_USBCtrlTrfSetupHandler:
  2360                           	opt stack 0
  2361                           stkptr	equ	0xFFC
  2362                           tblptru	equ	0xFF8
  2363                           tblptrh	equ	0xFF7
  2364                           tblptrl	equ	0xFF6
  2365                           tablat	equ	0xFF5
  2366                           prodh	equ	0xFF4
  2367                           prodl	equ	0xFF3
  2368                           intcon	equ	0xFF2
  2369                           wreg	equ	0xFE8
  2370                           indf1	equ	0xFE7
  2371                           fsr1h	equ	0xFE2
  2372                           fsr1l	equ	0xFE1
  2373                           indf2	equ	0xFDF
  2374                           postinc2	equ	0xFDE
  2375                           postdec2	equ	0xFDD
  2376                           fsr2h	equ	0xFDA
  2377                           fsr2l	equ	0xFD9
  2378                           status	equ	0xFD8
  2379                           
  2380 ;; *************** function _USBCtrlEPServiceComplete *****************
  2381 ;; Defined at:
  2382 ;;		line 1147 in file "../Source/c/usb_device.c"
  2383 ;; Parameters:    Size  Location     Type
  2384 ;;		None
  2385 ;; Auto vars:     Size  Location     Type
  2386 ;;		None
  2387 ;; Return value:  Size  Location     Type
  2388 ;;                  1    wreg      void 
  2389 ;; Registers used:
  2390 ;;		wreg, fsr1l, fsr1h, fsr2l, fsr2h, status,2, status,0, tblptrl, tblptrh, tblptru, cstack
  2391 ;; Tracked objects:
  2392 ;;		On entry : 0/0
  2393 ;;		On exit  : 0/0
  2394 ;;		Unchanged: 0/0
  2395 ;; Data sizes:     COMRAM   BANK0   BANK1   BANK2   BANK3  BANK4h   BANK5   BANK6   BANK7   BANK8   BANK9  BANK10  BANK1
      +1  BANK12  BANK13  BANK14
  2396 ;;      Params:         0       0       0       0       0       0       0       0       0       0       0       0       
      +0       0       0       0
  2397 ;;      Locals:         0       0       0       0       0       0       0       0       0       0       0       0       
      +0       0       0       0
  2398 ;;      Temps:          0       0       0       0       0       0       0       0       0       0       0       0       
      +0       0       0       0
  2399 ;;      Totals:         0       0       0       0       0       0       0       0       0       0       0       0       
      +0       0       0       0
  2400 ;;Total ram usage:        0 bytes
  2401 ;; Hardware stack levels used:    1
  2402 ;; Hardware stack levels required when called:    1
  2403 ;; This function calls:
  2404 ;;		_LoadBDTandSetUOWN
  2405 ;;		_USBCtrlTrfTxService
  2406 ;; This function is called by:
  2407 ;;		_USBCtrlTrfSetupHandler
  2408 ;; This function uses a non-reentrant model
  2409 ;;
  2410                           
  2411                           	psect	text10
  2412  001850                     __ptext10:
  2413                           	opt stack 0
  2414  001850                     _USBCtrlEPServiceComplete:
  2415                           	opt stack 26
  2416                           
  2417                           ;usb_device.c: 1151: if(ctrl_trf_session_owner == 0)
  2418                           
  2419                           ;incstack = 0
  2420  001850  503D               	movf	_ctrl_trf_session_owner,w,c
  2421  001852  A4D8               	btfss	status,2,c
  2422  001854  D015               	goto	l515
  2423                           
  2424                           ;usb_device.c: 1152: {
  2425                           ;usb_device.c: 1156: ep0Bi.Stat._byte = 0x04;
  2426  001856  0E04               	movlw	4
  2427  001858  0104               	movlb	4	; () banked
  2428  00185A  6F08               	movwf	8,b	;volatile
  2429                           
  2430                           ; BSR set to: 4
  2431                           ;usb_device.c: 1157: ep0Bi.Stat._byte |= 0x80;
  2432  00185C  8F08               	bsf	8,7,b	;volatile
  2433                           
  2434                           ; BSR set to: 4
  2435                           ;usb_device.c: 1158: TempBDT.Stat._byte = 0x04;
  2436  00185E  0E04               	movlw	4
  2437  001860  6E09               	movwf	_TempBDT,c
  2438                           
  2439                           ; BSR set to: 4
  2440                           ;usb_device.c: 1159: if(EP0OutOddNeedsArmingNext == 1)
  2441  001862  043B               	decf	_EP0OutOddNeedsArmingNext,w,c
  2442  001864  A4D8               	btfss	status,2,c
  2443  001866  D006               	goto	l516
  2444                           
  2445                           ; BSR set to: 4
  2446                           ;usb_device.c: 1160: {
  2447                           ;usb_device.c: 1161: LoadBDTandSetUOWN(1);
  2448  001868  0E01               	movlw	1
  2449  00186A  EC6B  F00E         	call	_LoadBDTandSetUOWN
  2450                           
  2451                           ;usb_device.c: 1162: EP0OutOddNeedsArmingNext = 0;
  2452  00186E  0E00               	movlw	0
  2453  001870  6E3B               	movwf	_EP0OutOddNeedsArmingNext,c
  2454                           
  2455                           ;usb_device.c: 1163: }
  2456  001872  0012               	return	
  2457  001874                     l516:
  2458                           
  2459                           ;usb_device.c: 1164: else
  2460                           ;usb_device.c: 1165: {
  2461                           ;usb_device.c: 1166: LoadBDTandSetUOWN(0);
  2462  001874  0E00               	movlw	0
  2463  001876  EC6B  F00E         	call	_LoadBDTandSetUOWN
  2464                           
  2465                           ;usb_device.c: 1167: EP0OutOddNeedsArmingNext = 1;
  2466  00187A  0E01               	movlw	1
  2467  00187C  6E3B               	movwf	_EP0OutOddNeedsArmingNext,c
  2468                           
  2469                           ;usb_device.c: 1168: }
  2470                           ;usb_device.c: 1169: }
  2471  00187E  0012               	return	
  2472  001880                     l515:
  2473                           
  2474                           ;usb_device.c: 1170: else
  2475                           ;usb_device.c: 1171: {
  2476                           ;usb_device.c: 1172: if(SetupPkt.DataDir == 1)
  2477  001880  AE01               	btfss	_SetupPkt,7,c
  2478  001882  D01F               	goto	l519
  2479                           
  2480                           ;usb_device.c: 1173: {
  2481                           ;usb_device.c: 1197: ctrl_trf_state = 1;
  2482  001884  0E01               	movlw	1
  2483  001886  6E3E               	movwf	_ctrl_trf_state,c
  2484                           
  2485                           ;usb_device.c: 1202: if(SetupPkt.wLength < wCount.Val)
  2486  001888  5029               	movf	_wCount,w,c
  2487  00188A  5C07               	subwf	_SetupPkt+6,w,c
  2488  00188C  502A               	movf	_wCount+1,w,c
  2489  00188E  5808               	subwfb	_SetupPkt+7,w,c
  2490  001890  B0D8               	btfsc	status,0,c
  2491  001892  D004               	goto	l520
  2492                           
  2493                           ;usb_device.c: 1203: wCount.Val = SetupPkt.wLength;
  2494  001894  C007  F029         	movff	_SetupPkt+6,_wCount
  2495  001898  C008  F02A         	movff	_SetupPkt+7,_wCount+1
  2496  00189C                     l520:
  2497                           
  2498                           ;usb_device.c: 1207: USBCtrlTrfTxService();
  2499  00189C  ECCB  F00B         	call	_USBCtrlTrfTxService	;wreg free
  2500                           
  2501                           ;usb_device.c: 1211: TempBDT.Stat._byte = 0x40 | 0x08;
  2502  0018A0  0E48               	movlw	72
  2503  0018A2  6E09               	movwf	_TempBDT,c
  2504                           
  2505                           ;usb_device.c: 1212: LoadBDTandSetUOWN(1);
  2506  0018A4  0E01               	movlw	1
  2507  0018A6  EC6B  F00E         	call	_LoadBDTandSetUOWN
  2508                           
  2509                           ;usb_device.c: 1213: LoadBDTandSetUOWN(0);
  2510  0018AA  0E00               	movlw	0
  2511  0018AC  EC6B  F00E         	call	_LoadBDTandSetUOWN
  2512                           
  2513                           ;usb_device.c: 1218: ep0Bi.ADR = (uint8_t*)&CtrlTrfData;
  2514  0018B0  0E24               	movlw	36
  2515  0018B2  0104               	movlb	4	; () banked
  2516  0018B4  6F0A               	movwf	10,b	;volatile
  2517  0018B6  0E04               	movlw	4
  2518  0018B8  6F0B               	movwf	11,b	;volatile
  2519                           
  2520                           ; BSR set to: 4
  2521                           ;usb_device.c: 1219: ep0Bi.Stat._byte = 0x40|0x08;
  2522  0018BA  0E48               	movlw	72
  2523  0018BC  6F08               	movwf	8,b	;volatile
  2524                           
  2525                           ; BSR set to: 4
  2526                           ;usb_device.c: 1220: ep0Bi.Stat._byte |= 0x80;
  2527  0018BE  8F08               	bsf	8,7,b	;volatile
  2528                           
  2529                           ;usb_device.c: 1221: }
  2530  0018C0  0012               	return	
  2531  0018C2                     l519:
  2532                           
  2533                           ;usb_device.c: 1222: else
  2534                           ;usb_device.c: 1223: {
  2535                           ;usb_device.c: 1234: ctrl_trf_state = 2;
  2536                           
  2537                           ; BSR set to: 4
  2538  0018C2  0E02               	movlw	2
  2539  0018C4  6E3E               	movwf	_ctrl_trf_state,c
  2540                           
  2541                           ;usb_device.c: 1239: TempBDT.Stat._byte = 0x04;
  2542  0018C6  0E04               	movlw	4
  2543  0018C8  6E09               	movwf	_TempBDT,c
  2544                           
  2545                           ;usb_device.c: 1241: if(SetupPkt.wLength == 0)
  2546  0018CA  5007               	movf	_SetupPkt+6,w,c
  2547  0018CC  1008               	iorwf	_SetupPkt+7,w,c
  2548  0018CE  A4D8               	btfss	status,2,c
  2549  0018D0  D002               	goto	l522
  2550                           
  2551                           ;usb_device.c: 1242: {
  2552                           ;usb_device.c: 1243: TempBDT.Stat._byte = 0x40|0x08;
  2553  0018D2  0E48               	movlw	72
  2554  0018D4  6E09               	movwf	_TempBDT,c
  2555  0018D6                     l522:
  2556                           
  2557                           ;usb_device.c: 1244: }
  2558                           ;usb_device.c: 1246: if(EP0OutOddNeedsArmingNext == 1)
  2559  0018D6  043B               	decf	_EP0OutOddNeedsArmingNext,w,c
  2560  0018D8  A4D8               	btfss	status,2,c
  2561  0018DA  D005               	goto	l523
  2562                           
  2563                           ;usb_device.c: 1247: {
  2564                           ;usb_device.c: 1248: LoadBDTandSetUOWN(1);
  2565  0018DC  0E01               	movlw	1
  2566  0018DE  EC6B  F00E         	call	_LoadBDTandSetUOWN
  2567                           
  2568                           ;usb_device.c: 1249: EP0OutOddNeedsArmingNext = 0;
  2569  0018E2  0E00               	movlw	0
  2570  0018E4  D004               	goto	L4
  2571  0018E6                     l523:
  2572                           
  2573                           ;usb_device.c: 1251: else
  2574                           ;usb_device.c: 1252: {
  2575                           ;usb_device.c: 1253: LoadBDTandSetUOWN(0);
  2576  0018E6  0E00               	movlw	0
  2577  0018E8  EC6B  F00E         	call	_LoadBDTandSetUOWN
  2578                           
  2579                           ;usb_device.c: 1254: EP0OutOddNeedsArmingNext = 1;
  2580  0018EC  0E01               	movlw	1
  2581  0018EE                     L4:
  2582  0018EE  6E3B               	movwf	_EP0OutOddNeedsArmingNext,c
  2583                           
  2584                           ;usb_device.c: 1255: }
  2585                           ;usb_device.c: 1259: if(SetupPkt.wLength == 0)
  2586  0018F0  5007               	movf	_SetupPkt+6,w,c
  2587  0018F2  1008               	iorwf	_SetupPkt+7,w,c
  2588  0018F4  A4D8               	btfss	status,2,c
  2589  0018F6  0012               	return	
  2590                           
  2591                           ;usb_device.c: 1260: {
  2592                           ;usb_device.c: 1262: ep0Bi.Cnt = 0;
  2593  0018F8  0E00               	movlw	0
  2594  0018FA  0104               	movlb	4	; () banked
  2595  0018FC  6F09               	movwf	9,b	;volatile
  2596                           
  2597                           ;usb_device.c: 1263: ep0Bi.Stat._byte = 0x40|0x08;
  2598  0018FE  0E48               	movlw	72
  2599  001900  6F08               	movwf	8,b	;volatile
  2600                           
  2601                           ; BSR set to: 4
  2602                           ;usb_device.c: 1264: ep0Bi.Stat._byte |= 0x80;
  2603  001902  8F08               	bsf	8,7,b	;volatile
  2604                           
  2605                           ; BSR set to: 4
  2606                           
  2607                           ; BSR set to: 4
  2608  001904  0012               	return	
  2609  001906                     __end_of_USBCtrlEPServiceComplete:
  2610                           	opt stack 0
  2611                           stkptr	equ	0xFFC
  2612                           tblptru	equ	0xFF8
  2613                           tblptrh	equ	0xFF7
  2614                           tblptrl	equ	0xFF6
  2615                           tablat	equ	0xFF5
  2616                           prodh	equ	0xFF4
  2617                           prodl	equ	0xFF3
  2618                           intcon	equ	0xFF2
  2619                           wreg	equ	0xFE8
  2620                           indf1	equ	0xFE7
  2621                           fsr1h	equ	0xFE2
  2622                           fsr1l	equ	0xFE1
  2623                           indf2	equ	0xFDF
  2624                           postinc2	equ	0xFDE
  2625                           postdec2	equ	0xFDD
  2626                           fsr2h	equ	0xFDA
  2627                           fsr2l	equ	0xFD9
  2628                           status	equ	0xFD8
  2629                           
  2630 ;; *************** function _USBCheckStdRequest *****************
  2631 ;; Defined at:
  2632 ;;		line 1294 in file "../Source/c/usb_device.c"
  2633 ;; Parameters:    Size  Location     Type
  2634 ;;		None
  2635 ;; Auto vars:     Size  Location     Type
  2636 ;;		None
  2637 ;; Return value:  Size  Location     Type
  2638 ;;                  1    wreg      void 
  2639 ;; Registers used:
  2640 ;;		wreg, fsr1l, fsr1h, fsr2l, fsr2h, status,2, status,0, tblptrl, tblptrh, tblptru, prodl, prodh, cstack
  2641 ;; Tracked objects:
  2642 ;;		On entry : 0/0
  2643 ;;		On exit  : 0/0
  2644 ;;		Unchanged: 0/0
  2645 ;; Data sizes:     COMRAM   BANK0   BANK1   BANK2   BANK3  BANK4h   BANK5   BANK6   BANK7   BANK8   BANK9  BANK10  BANK1
      +1  BANK12  BANK13  BANK14
  2646 ;;      Params:         0       0       0       0       0       0       0       0       0       0       0       0       
      +0       0       0       0
  2647 ;;      Locals:         0       0       0       0       0       0       0       0       0       0       0       0       
      +0       0       0       0
  2648 ;;      Temps:          0       0       0       0       0       0       0       0       0       0       0       0       
      +0       0       0       0
  2649 ;;      Totals:         0       0       0       0       0       0       0       0       0       0       0       0       
      +0       0       0       0
  2650 ;;Total ram usage:        0 bytes
  2651 ;; Hardware stack levels used:    1
  2652 ;; Hardware stack levels required when called:    3
  2653 ;; This function calls:
  2654 ;;		_USBStdFeatureReqHandler
  2655 ;;		_USBStdGetDscHandler
  2656 ;;		_USBStdGetStatusHandler
  2657 ;;		_USBStdSetCfgHandler
  2658 ;; This function is called by:
  2659 ;;		_USBCtrlTrfSetupHandler
  2660 ;; This function uses a non-reentrant model
  2661 ;;
  2662                           
  2663                           	psect	text11
  2664  0016DA                     __ptext11:
  2665                           	opt stack 0
  2666  0016DA                     _USBCheckStdRequest:
  2667                           	opt stack 24
  2668                           
  2669                           ;usb_device.c: 1296: if(SetupPkt.RequestType != 0x00) return;
  2670                           
  2671                           ;incstack = 0
  2672  0016DA  3801               	swapf	_SetupPkt,w,c
  2673  0016DC  32E8               	rrcf	wreg,f,c
  2674  0016DE  0B03               	andlw	3
  2675  0016E0  0900               	iorlw	0
  2676  0016E2  A4D8               	btfss	status,2,c
  2677  0016E4  0012               	return	
  2678  0016E6  D036               	goto	l531
  2679  0016E8                     
  2680                           ;usb_device.c: 1301: ctrl_trf_session_owner = 1;
  2681  0016E8  0E01               	movlw	1
  2682  0016EA  6E3D               	movwf	_ctrl_trf_session_owner,c
  2683                           
  2684                           ;usb_device.c: 1302: usb_device_state = 4;
  2685  0016EC  0E04               	movlw	4
  2686  0016EE  6E45               	movwf	_usb_device_state,c
  2687                           
  2688                           ;usb_device.c: 1304: break;
  2689  0016F0  0012               	return	
  2690  0016F2                     
  2691                           ;usb_device.c: 1306: USBStdGetDscHandler();
  2692  0016F2  EC1F  F00D         	call	_USBStdGetDscHandler	;wreg free
  2693                           
  2694                           ;usb_device.c: 1307: break;
  2695  0016F6  0012               	return	
  2696  0016F8                     
  2697                           ;usb_device.c: 1309: USBStdSetCfgHandler();
  2698  0016F8  EC0F  F00E         	call	_USBStdSetCfgHandler	;wreg free
  2699                           
  2700                           ;usb_device.c: 1310: break;
  2701  0016FC  0012               	return	
  2702  0016FE                     
  2703                           ;usb_device.c: 1312: ctrl_trf_session_owner = 1;
  2704  0016FE  0E01               	movlw	1
  2705  001700  6E3D               	movwf	_ctrl_trf_session_owner,c
  2706                           
  2707                           ;usb_device.c: 1313: pSrc.bRam = (uint8_t*)&usb_active_cfg;
  2708  001702  0E49               	movlw	low _usb_active_cfg
  2709  001704  6E20               	movwf	_pSrc,c
  2710  001706  0E00               	movlw	high _usb_active_cfg
  2711  001708  6E21               	movwf	_pSrc+1,c
  2712                           
  2713                           ;usb_device.c: 1314: usb_stat.ctrl_trf_mem = 0;
  2714  00170A  923A               	bcf	_usb_stat,1,c
  2715                           
  2716                           ;usb_device.c: 1316: wCount.v[0] = 1;
  2717  00170C  0E01               	movlw	1
  2718  00170E  6E29               	movwf	_wCount,c
  2719                           
  2720                           ;usb_device.c: 1317: break;
  2721  001710  0012               	return	
  2722  001712                     
  2723                           ;usb_device.c: 1319: USBStdGetStatusHandler();
  2724  001712  EC83  F00C         	call	_USBStdGetStatusHandler	;wreg free
  2725                           
  2726                           ;usb_device.c: 1320: break;
  2727  001716  0012               	return	
  2728  001718                     
  2729                           ;usb_device.c: 1322: case 3:
  2730                           ;usb_device.c: 1323: USBStdFeatureReqHandler();
  2731  001718  EC07  F00B         	call	_USBStdFeatureReqHandler	;wreg free
  2732                           
  2733                           ;usb_device.c: 1324: break;
  2734  00171C  0012               	return	
  2735  00171E                     
  2736                           ;usb_device.c: 1326: ctrl_trf_session_owner = 1;
  2737  00171E  0E01               	movlw	1
  2738  001720  6E3D               	movwf	_ctrl_trf_session_owner,c
  2739                           
  2740                           ;usb_device.c: 1327: pSrc.bRam = (uint8_t*)&usb_alt_intf+SetupPkt.bIntfID;
  2741  001722  5005               	movf	_SetupPkt+4,w,c
  2742  001724  0D01               	mullw	1
  2743  001726  0E48               	movlw	low _usb_alt_intf
  2744  001728  24F3               	addwf	prodl,w,c
  2745  00172A  6E20               	movwf	_pSrc,c
  2746  00172C  0E00               	movlw	high _usb_alt_intf
  2747  00172E  20F4               	addwfc	prodh,w,c
  2748  001730  6E21               	movwf	_pSrc+1,c
  2749                           
  2750                           ;usb_device.c: 1328: usb_stat.ctrl_trf_mem = 0;
  2751  001732  923A               	bcf	_usb_stat,1,c
  2752                           
  2753                           ;usb_device.c: 1329: wCount.v[0] = 1;
  2754  001734  0E01               	movlw	1
  2755  001736  6E29               	movwf	_wCount,c
  2756                           
  2757                           ;usb_device.c: 1330: break;
  2758  001738  0012               	return	
  2759  00173A                     
  2760                           ;usb_device.c: 1332: ctrl_trf_session_owner = 1;
  2761  00173A  0E01               	movlw	1
  2762  00173C  6E3D               	movwf	_ctrl_trf_session_owner,c
  2763                           
  2764                           ;usb_device.c: 1333: usb_alt_intf[SetupPkt.bIntfID] = SetupPkt.bAltID;
  2765  00173E  5005               	movf	_SetupPkt+4,w,c
  2766  001740  0D01               	mullw	1
  2767  001742  0E48               	movlw	low _usb_alt_intf
  2768  001744  24F3               	addwf	prodl,w,c
  2769  001746  6ED9               	movwf	fsr2l,c
  2770  001748  0E00               	movlw	high _usb_alt_intf
  2771  00174A  20F4               	addwfc	prodh,w,c
  2772  00174C  6EDA               	movwf	fsr2h,c
  2773  00174E  C003  FFDF         	movff	_SetupPkt+2,indf2
  2774                           
  2775                           ;usb_device.c: 1339: }
  2776                           
  2777                           ;usb_device.c: 1338: break;
  2778                           
  2779                           ;usb_device.c: 1336: case 12:
  2780                           ;usb_device.c: 1337: default:
  2781                           
  2782                           ;usb_device.c: 1335: case 7:
  2783                           
  2784                           ;usb_device.c: 1334: break;
  2785  001752  0012               	return	
  2786  001754                     l531:
  2787  001754  5002               	movf	_SetupPkt+1,w,c
  2788                           
  2789                           ; Switch size 1, requested type "space"
  2790                           ; Number of cases is 11, Range of values is 0 to 12
  2791                           ; switch strategies available:
  2792                           ; Name         Instructions Cycles
  2793                           ; simple_byte           34    18 (average)
  2794                           ;	Chosen strategy is simple_byte
  2795  001756  0A00               	xorlw	0	; case 0
  2796  001758  B4D8               	btfsc	status,2,c
  2797  00175A  D7DB               	goto	l537
  2798  00175C  0A01               	xorlw	1	; case 1
  2799  00175E  B4D8               	btfsc	status,2,c
  2800  001760  D7DB               	goto	l538
  2801  001762  0A02               	xorlw	2	; case 3
  2802  001764  B4D8               	btfsc	status,2,c
  2803  001766  D7D8               	goto	l538
  2804  001768  0A06               	xorlw	6	; case 5
  2805  00176A  B4D8               	btfsc	status,2,c
  2806  00176C  D7BD               	goto	l532
  2807  00176E  0A03               	xorlw	3	; case 6
  2808  001770  B4D8               	btfsc	status,2,c
  2809  001772  D7BF               	goto	l534
  2810  001774  0A01               	xorlw	1	; case 7
  2811  001776  B4D8               	btfsc	status,2,c
  2812  001778  0012               	return	
  2813  00177A  0A0F               	xorlw	15	; case 8
  2814  00177C  B4D8               	btfsc	status,2,c
  2815  00177E  D7BF               	goto	l536
  2816  001780  0A01               	xorlw	1	; case 9
  2817  001782  B4D8               	btfsc	status,2,c
  2818  001784  D7B9               	goto	l535
  2819  001786  0A03               	xorlw	3	; case 10
  2820  001788  B4D8               	btfsc	status,2,c
  2821  00178A  D7C9               	goto	l540
  2822  00178C  0A01               	xorlw	1	; case 11
  2823  00178E  B4D8               	btfsc	status,2,c
  2824  001790  D7D4               	goto	l541
  2825  001792  0A07               	xorlw	7	; case 12
  2826  001794  0012               	return	
  2827  001796                     __end_of_USBCheckStdRequest:
  2828                           	opt stack 0
  2829                           stkptr	equ	0xFFC
  2830                           tblptru	equ	0xFF8
  2831                           tblptrh	equ	0xFF7
  2832                           tblptrl	equ	0xFF6
  2833                           tablat	equ	0xFF5
  2834                           prodh	equ	0xFF4
  2835                           prodl	equ	0xFF3
  2836                           intcon	equ	0xFF2
  2837                           wreg	equ	0xFE8
  2838                           indf1	equ	0xFE7
  2839                           fsr1h	equ	0xFE2
  2840                           fsr1l	equ	0xFE1
  2841                           indf2	equ	0xFDF
  2842                           postinc2	equ	0xFDE
  2843                           postdec2	equ	0xFDD
  2844                           fsr2h	equ	0xFDA
  2845                           fsr2l	equ	0xFD9
  2846                           status	equ	0xFD8
  2847                           
  2848 ;; *************** function _USBStdSetCfgHandler *****************
  2849 ;; Defined at:
  2850 ;;		line 1409 in file "../Source/c/usb_device.c"
  2851 ;; Parameters:    Size  Location     Type
  2852 ;;		None
  2853 ;; Auto vars:     Size  Location     Type
  2854 ;;		None
  2855 ;; Return value:  Size  Location     Type
  2856 ;;                  1    wreg      void 
  2857 ;; Registers used:
  2858 ;;		wreg, fsr2l, fsr2h, status,2, status,0, prodl, prodh, cstack
  2859 ;; Tracked objects:
  2860 ;;		On entry : 0/0
  2861 ;;		On exit  : 0/0
  2862 ;;		Unchanged: 0/0
  2863 ;; Data sizes:     COMRAM   BANK0   BANK1   BANK2   BANK3  BANK4h   BANK5   BANK6   BANK7   BANK8   BANK9  BANK10  BANK1
      +1  BANK12  BANK13  BANK14
  2864 ;;      Params:         0       0       0       0       0       0       0       0       0       0       0       0       
      +0       0       0       0
  2865 ;;      Locals:         0       0       0       0       0       0       0       0       0       0       0       0       
      +0       0       0       0
  2866 ;;      Temps:          0       0       0       0       0       0       0       0       0       0       0       0       
      +0       0       0       0
  2867 ;;      Totals:         0       0       0       0       0       0       0       0       0       0       0       0       
      +0       0       0       0
  2868 ;;Total ram usage:        0 bytes
  2869 ;; Hardware stack levels used:    1
  2870 ;; Hardware stack levels required when called:    2
  2871 ;; This function calls:
  2872 ;;		_USBCBInitEP
  2873 ;; This function is called by:
  2874 ;;		_USBCheckStdRequest
  2875 ;; This function uses a non-reentrant model
  2876 ;;
  2877                           
  2878                           	psect	text12
  2879  001C1E                     __ptext12:
  2880                           	opt stack 0
  2881  001C1E                     _USBStdSetCfgHandler:
  2882                           	opt stack 24
  2883                           
  2884                           ;usb_device.c: 1411: static unsigned char i;
  2885                           ;usb_device.c: 1413: ctrl_trf_session_owner = 1;
  2886                           
  2887                           ;incstack = 0
  2888  001C1E  0E01               	movlw	1
  2889  001C20  6E3D               	movwf	_ctrl_trf_session_owner,c
  2890                           
  2891                           ;usb_device.c: 1415: UEP1=0x00;UEP2=0x00;UEP3=0x00; UEP4=0x00;UEP5=0x00;UEP6=0x00;UEP7=0
      +                          x00;;
  2892  001C22  0E00               	movlw	0
  2893  001C24  010F               	movlb	15	; () banked
  2894  001C26  6F27               	movwf	39,b	;volatile
  2895  001C28  0E00               	movlw	0
  2896  001C2A  6F28               	movwf	40,b	;volatile
  2897  001C2C  0E00               	movlw	0
  2898  001C2E  6F29               	movwf	41,b	;volatile
  2899  001C30  0E00               	movlw	0
  2900  001C32  6F2A               	movwf	42,b	;volatile
  2901  001C34  0E00               	movlw	0
  2902  001C36  6F2B               	movwf	43,b	;volatile
  2903  001C38  0E00               	movlw	0
  2904  001C3A  6F2C               	movwf	44,b	;volatile
  2905  001C3C  0E00               	movlw	0
  2906  001C3E  6F2D               	movwf	45,b	;volatile
  2907                           
  2908                           ;usb_device.c: 1417: for(i = 0; i < 1; i++)
  2909  001C40  0E00               	movlw	0
  2910  001C42  6E34               	movwf	USBStdSetCfgHandler@i,c
  2911  001C44  D00B               	goto	l2515
  2912  001C46                     
  2913                           ;usb_device.c: 1418: {
  2914                           ;usb_device.c: 1419: usb_alt_intf[i] = 0;
  2915                           
  2916                           ; BSR set to: 15
  2917  001C46  5034               	movf	USBStdSetCfgHandler@i,w,c
  2918  001C48  0D01               	mullw	1
  2919  001C4A  0E48               	movlw	low _usb_alt_intf
  2920  001C4C  24F3               	addwf	prodl,w,c
  2921  001C4E  6ED9               	movwf	fsr2l,c
  2922  001C50  0E00               	movlw	high _usb_alt_intf
  2923  001C52  20F4               	addwfc	prodh,w,c
  2924  001C54  6EDA               	movwf	fsr2h,c
  2925  001C56  0E00               	movlw	0
  2926  001C58  6EDF               	movwf	indf2,c
  2927  001C5A  2A34               	incf	USBStdSetCfgHandler@i,f,c
  2928  001C5C                     l2515:
  2929  001C5C  5034               	movf	USBStdSetCfgHandler@i,w,c
  2930  001C5E  B4D8               	btfsc	status,2,c
  2931  001C60  D7F2               	goto	l559
  2932                           
  2933                           ;usb_device.c: 1420: }
  2934                           ;usb_device.c: 1423: usb_active_cfg = SetupPkt.bCfgValue;
  2935  001C62  C003  F049         	movff	_SetupPkt+2,_usb_active_cfg
  2936                           
  2937                           ;usb_device.c: 1430: USBCBInitEP(usb_active_cfg);
  2938  001C66  5049               	movf	_usb_active_cfg,w,c
  2939  001C68  ECCE  F00F         	call	_USBCBInitEP
  2940                           
  2941                           ;usb_device.c: 1432: if(SetupPkt.bCfgValue == 0)
  2942  001C6C  5003               	movf	_SetupPkt+2,w,c
  2943  001C6E  A4D8               	btfss	status,2,c
  2944  001C70  D003               	goto	l561
  2945                           
  2946                           ;usb_device.c: 1433: {
  2947                           ;usb_device.c: 1434: usb_device_state = 5;
  2948  001C72  0E05               	movlw	5
  2949  001C74  6E45               	movwf	_usb_device_state,c
  2950                           
  2951                           ;usb_device.c: 1435: }
  2952  001C76  0012               	return	
  2953  001C78                     l561:
  2954                           
  2955                           ;usb_device.c: 1436: else
  2956                           ;usb_device.c: 1437: {
  2957                           ;usb_device.c: 1438: usb_device_state = 6;
  2958  001C78  0E06               	movlw	6
  2959  001C7A  6E45               	movwf	_usb_device_state,c
  2960  001C7C  0012               	return	
  2961  001C7E                     __end_of_USBStdSetCfgHandler:
  2962                           	opt stack 0
  2963                           stkptr	equ	0xFFC
  2964                           tblptru	equ	0xFF8
  2965                           tblptrh	equ	0xFF7
  2966                           tblptrl	equ	0xFF6
  2967                           tablat	equ	0xFF5
  2968                           prodh	equ	0xFF4
  2969                           prodl	equ	0xFF3
  2970                           intcon	equ	0xFF2
  2971                           wreg	equ	0xFE8
  2972                           indf1	equ	0xFE7
  2973                           fsr1h	equ	0xFE2
  2974                           fsr1l	equ	0xFE1
  2975                           indf2	equ	0xFDF
  2976                           postinc2	equ	0xFDE
  2977                           postdec2	equ	0xFDD
  2978                           fsr2h	equ	0xFDA
  2979                           fsr2l	equ	0xFD9
  2980                           status	equ	0xFD8
  2981                           
  2982 ;; *************** function _USBStdGetStatusHandler *****************
  2983 ;; Defined at:
  2984 ;;		line 1458 in file "../Source/c/usb_device.c"
  2985 ;; Parameters:    Size  Location     Type
  2986 ;;		None
  2987 ;; Auto vars:     Size  Location     Type
  2988 ;;		None
  2989 ;; Return value:  Size  Location     Type
  2990 ;;                  1    wreg      void 
  2991 ;; Registers used:
  2992 ;;		wreg, fsr2l, fsr2h, status,2, status,0, prodl, prodh
  2993 ;; Tracked objects:
  2994 ;;		On entry : 0/0
  2995 ;;		On exit  : 0/0
  2996 ;;		Unchanged: 0/0
  2997 ;; Data sizes:     COMRAM   BANK0   BANK1   BANK2   BANK3  BANK4h   BANK5   BANK6   BANK7   BANK8   BANK9  BANK10  BANK1
      +1  BANK12  BANK13  BANK14
  2998 ;;      Params:         0       0       0       0       0       0       0       0       0       0       0       0       
      +0       0       0       0
  2999 ;;      Locals:         0       0       0       0       0       0       0       0       0       0       0       0       
      +0       0       0       0
  3000 ;;      Temps:          4       0       0       0       0       0       0       0       0       0       0       0       
      +0       0       0       0
  3001 ;;      Totals:         4       0       0       0       0       0       0       0       0       0       0       0       
      +0       0       0       0
  3002 ;;Total ram usage:        4 bytes
  3003 ;; Hardware stack levels used:    1
  3004 ;; This function calls:
  3005 ;;		Nothing
  3006 ;; This function is called by:
  3007 ;;		_USBCheckStdRequest
  3008 ;; This function uses a non-reentrant model
  3009 ;;
  3010                           
  3011                           	psect	text13
  3012  001906                     __ptext13:
  3013                           	opt stack 0
  3014  001906                     _USBStdGetStatusHandler:
  3015                           	opt stack 26
  3016                           
  3017                           ;usb_device.c: 1460: CtrlTrfData._byte0 = 0;
  3018                           
  3019                           ;incstack = 0
  3020  001906  0E00               	movlw	0
  3021  001908  0104               	movlb	4	; () banked
  3022  00190A  6F24               	movwf	36,b	;volatile
  3023                           
  3024                           ;usb_device.c: 1461: CtrlTrfData._byte1 = 0;
  3025  00190C  0E00               	movlw	0
  3026  00190E  6F25               	movwf	37,b	;volatile
  3027                           
  3028                           ;usb_device.c: 1463: switch(SetupPkt.Recipient)
  3029  001910  D034               	goto	l566
  3030  001912                     
  3031                           ; BSR set to: 4
  3032                           ;usb_device.c: 1466: ctrl_trf_session_owner = 1;
  3033                           
  3034                           ; BSR set to: 4
  3035  001912  0E01               	movlw	1
  3036  001914  6E3D               	movwf	_ctrl_trf_session_owner,c
  3037                           
  3038                           ; BSR set to: 4
  3039                           ;usb_device.c: 1474: if(usb_stat.RemoteWakeup == 1)
  3040                           
  3041                           ; BSR set to: 4
  3042                           
  3043                           ; BSR set to: 4
  3044                           ;usb_device.c: 1473: CtrlTrfData._byte0 |= 0b00000001;
  3045                           
  3046                           ;usb_device.c: 1472: if(0 == 1)
  3047  001916  A03A               	btfss	_usb_stat,0,c
  3048  001918  D03B               	goto	l570
  3049                           
  3050                           ; BSR set to: 4
  3051                           ;usb_device.c: 1475: CtrlTrfData._byte0|=0b00000010;
  3052  00191A  8324               	bsf	36,1,b	;volatile
  3053                           
  3054                           ; BSR set to: 4
  3055                           ;usb_device.c: 1476: break;
  3056  00191C  D039               	goto	l570
  3057  00191E                     
  3058                           ; BSR set to: 4
  3059                           ;usb_device.c: 1478: ctrl_trf_session_owner = 1;
  3060                           
  3061                           ; BSR set to: 4
  3062  00191E  0E01               	movlw	1
  3063  001920  6E3D               	movwf	_ctrl_trf_session_owner,c
  3064                           
  3065                           ;usb_device.c: 1479: break;
  3066  001922  D036               	goto	l570
  3067  001924                     
  3068                           ; BSR set to: 4
  3069                           ;usb_device.c: 1481: ctrl_trf_session_owner = 1;
  3070                           
  3071                           ; BSR set to: 4
  3072  001924  0E01               	movlw	1
  3073  001926  6E3D               	movwf	_ctrl_trf_session_owner,c
  3074                           
  3075                           ; BSR set to: 4
  3076                           ;usb_device.c: 1485: pDst.bRam = (uint8_t*)&ep0BoEven+(SetupPkt.EPNum*8)+(SetupPkt.EPDir
      +                          *4)+4;
  3077  001928  5005               	movf	_SetupPkt+4,w,c
  3078  00192A  0B0F               	andlw	15
  3079  00192C  6E4A               	movwf	??_USBStdGetStatusHandler& (0+255),c
  3080  00192E  504A               	movf	??_USBStdGetStatusHandler,w,c
  3081  001930  0D08               	mullw	8
  3082  001932  0E00               	movlw	0
  3083  001934  6E4B               	movwf	(??_USBStdGetStatusHandler+1)& (0+255),c
  3084  001936  0E04               	movlw	4
  3085  001938  6E4C               	movwf	(??_USBStdGetStatusHandler+2)& (0+255),c
  3086  00193A  50F3               	movf	prodl,w,c
  3087  00193C  264B               	addwf	??_USBStdGetStatusHandler+1,f,c
  3088  00193E  50F4               	movf	prodh,w,c
  3089  001940  224C               	addwfc	??_USBStdGetStatusHandler+2,f,c
  3090  001942  AE05               	btfss	_SetupPkt+4,7,c
  3091  001944  D003               	goto	u1460
  3092  001946  6A4D               	clrf	(??_USBStdGetStatusHandler+3)& (0+255),c
  3093  001948  2A4D               	incf	(??_USBStdGetStatusHandler+3)& (0+255),f,c
  3094  00194A  D001               	goto	u1468
  3095  00194C                     u1460:
  3096  00194C  6A4D               	clrf	(??_USBStdGetStatusHandler+3)& (0+255),c
  3097  00194E                     u1468:
  3098  00194E  504D               	movf	??_USBStdGetStatusHandler+3,w,c
  3099  001950  0D04               	mullw	4
  3100  001952  50F3               	movf	prodl,w,c
  3101  001954  264B               	addwf	??_USBStdGetStatusHandler+1,f,c
  3102  001956  50F4               	movf	prodh,w,c
  3103  001958  224C               	addwfc	??_USBStdGetStatusHandler+2,f,c
  3104  00195A  0E04               	movlw	4
  3105  00195C  244B               	addwf	??_USBStdGetStatusHandler+1,w,c
  3106  00195E  6E1D               	movwf	_pDst,c
  3107  001960  0E00               	movlw	0
  3108  001962  204C               	addwfc	??_USBStdGetStatusHandler+2,w,c
  3109  001964  6E1E               	movwf	_pDst+1,c
  3110                           
  3111                           ;usb_device.c: 1486: if(*pDst.bRam & 0x04)
  3112  001966  C01D  FFD9         	movff	_pDst,fsr2l
  3113  00196A  C01E  FFDA         	movff	_pDst+1,fsr2h
  3114  00196E  A4DF               	btfss	indf2,2,c
  3115  001970  D00F               	goto	l570
  3116                           
  3117                           ;usb_device.c: 1487: CtrlTrfData._byte0=0x01;
  3118  001972  0E01               	movlw	1
  3119  001974  0104               	movlb	4	; () banked
  3120  001976  6F24               	movwf	36,b	;volatile
  3121                           
  3122                           ; BSR set to: 4
  3123                           ;usb_device.c: 1489: }
  3124                           
  3125                           ; BSR set to: 4
  3126                           ;usb_device.c: 1488: break;
  3127  001978  D00B               	goto	l570
  3128  00197A                     l566:
  3129                           
  3130                           ; BSR set to: 4
  3131                           
  3132                           ; BSR set to: 4
  3133  00197A  5001               	movf	_SetupPkt,w,c
  3134  00197C  0B1F               	andlw	31
  3135                           
  3136                           ; Switch size 1, requested type "space"
  3137                           ; Number of cases is 3, Range of values is 0 to 2
  3138                           ; switch strategies available:
  3139                           ; Name         Instructions Cycles
  3140                           ; simple_byte           10     6 (average)
  3141                           ;	Chosen strategy is simple_byte
  3142  00197E  0A00               	xorlw	0	; case 0
  3143  001980  B4D8               	btfsc	status,2,c
  3144  001982  D7C7               	goto	l567
  3145  001984  0A01               	xorlw	1	; case 1
  3146  001986  B4D8               	btfsc	status,2,c
  3147  001988  D7CA               	goto	l571
  3148  00198A  0A03               	xorlw	3	; case 2
  3149  00198C  B4D8               	btfsc	status,2,c
  3150  00198E  D7CA               	goto	l572
  3151  001990                     l570:
  3152                           
  3153                           ;usb_device.c: 1491: if(ctrl_trf_session_owner == 1)
  3154                           
  3155                           ; BSR set to: 4
  3156  001990  043D               	decf	_ctrl_trf_session_owner,w,c
  3157  001992  A4D8               	btfss	status,2,c
  3158  001994  0012               	return	
  3159                           
  3160                           ;usb_device.c: 1492: {
  3161                           ;usb_device.c: 1493: pSrc.bRam = (uint8_t*)&CtrlTrfData;
  3162  001996  0E24               	movlw	36
  3163  001998  6E20               	movwf	_pSrc,c
  3164  00199A  0E04               	movlw	4
  3165  00199C  6E21               	movwf	_pSrc+1,c
  3166                           
  3167                           ;usb_device.c: 1494: usb_stat.ctrl_trf_mem = 0;
  3168  00199E  923A               	bcf	_usb_stat,1,c
  3169                           
  3170                           ;usb_device.c: 1495: wCount.v[0] = 2;
  3171  0019A0  0E02               	movlw	2
  3172  0019A2  6E29               	movwf	_wCount,c
  3173  0019A4  0012               	return	
  3174  0019A6                     __end_of_USBStdGetStatusHandler:
  3175                           	opt stack 0
  3176                           stkptr	equ	0xFFC
  3177                           tblptru	equ	0xFF8
  3178                           tblptrh	equ	0xFF7
  3179                           tblptrl	equ	0xFF6
  3180                           tablat	equ	0xFF5
  3181                           prodh	equ	0xFF4
  3182                           prodl	equ	0xFF3
  3183                           intcon	equ	0xFF2
  3184                           wreg	equ	0xFE8
  3185                           indf1	equ	0xFE7
  3186                           fsr1h	equ	0xFE2
  3187                           fsr1l	equ	0xFE1
  3188                           indf2	equ	0xFDF
  3189                           postinc2	equ	0xFDE
  3190                           postdec2	equ	0xFDD
  3191                           fsr2h	equ	0xFDA
  3192                           fsr2l	equ	0xFD9
  3193                           status	equ	0xFD8
  3194                           
  3195 ;; *************** function _USBStdGetDscHandler *****************
  3196 ;; Defined at:
  3197 ;;		line 1361 in file "../Source/c/usb_device.c"
  3198 ;; Parameters:    Size  Location     Type
  3199 ;;		None
  3200 ;; Auto vars:     Size  Location     Type
  3201 ;;		None
  3202 ;; Return value:  Size  Location     Type
  3203 ;;                  1    wreg      void 
  3204 ;; Registers used:
  3205 ;;		wreg, fsr1l, fsr1h, status,2, status,0, tblptrl, tblptrh, tblptru, prodl, prodh
  3206 ;; Tracked objects:
  3207 ;;		On entry : 0/0
  3208 ;;		On exit  : 0/0
  3209 ;;		Unchanged: 0/0
  3210 ;; Data sizes:     COMRAM   BANK0   BANK1   BANK2   BANK3  BANK4h   BANK5   BANK6   BANK7   BANK8   BANK9  BANK10  BANK1
      +1  BANK12  BANK13  BANK14
  3211 ;;      Params:         0       0       0       0       0       0       0       0       0       0       0       0       
      +0       0       0       0
  3212 ;;      Locals:         0       0       0       0       0       0       0       0       0       0       0       0       
      +0       0       0       0
  3213 ;;      Temps:          1       0       0       0       0       0       0       0       0       0       0       0       
      +0       0       0       0
  3214 ;;      Totals:         1       0       0       0       0       0       0       0       0       0       0       0       
      +0       0       0       0
  3215 ;;Total ram usage:        1 bytes
  3216 ;; Hardware stack levels used:    1
  3217 ;; This function calls:
  3218 ;;		Nothing
  3219 ;; This function is called by:
  3220 ;;		_USBCheckStdRequest
  3221 ;; This function uses a non-reentrant model
  3222 ;;
  3223                           
  3224                           	psect	text14
  3225  001A3E                     __ptext14:
  3226                           	opt stack 0
  3227  001A3E                     _USBStdGetDscHandler:
  3228                           	opt stack 26
  3229                           
  3230                           ;usb_device.c: 1363: if(SetupPkt.bmRequestType == 0x80)
  3231                           
  3232                           ;incstack = 0
  3233  001A3E  0E80               	movlw	128
  3234  001A40  1801               	xorwf	_SetupPkt,w,c
  3235  001A42  A4D8               	btfss	status,2,c
  3236  001A44  0012               	return	
  3237  001A46  D03B               	goto	l548
  3238  001A48                     
  3239                           ;usb_device.c: 1368: ctrl_trf_session_owner = 1;
  3240  001A48  0E01               	movlw	1
  3241  001A4A  6E3D               	movwf	_ctrl_trf_session_owner,c
  3242                           
  3243                           ;usb_device.c: 1369: pSrc.bRom = (const uint8_t*)&device_dsc;
  3244  001A4C  0EA7               	movlw	low _device_dsc
  3245  001A4E  6E20               	movwf	_pSrc,c
  3246  001A50  0E0F               	movlw	high _device_dsc
  3247  001A52  6E21               	movwf	_pSrc+1,c
  3248                           
  3249                           ;usb_device.c: 1370: wCount.v[0] = sizeof(device_dsc);
  3250  001A54  0E12               	movlw	18
  3251  001A56  D00C               	goto	L5
  3252  001A58                     
  3253                           ;usb_device.c: 1374: if(SetupPkt.bDscIndex < 1)
  3254  001A58  5003               	movf	_SetupPkt+2,w,c
  3255  001A5A  A4D8               	btfss	status,2,c
  3256  001A5C  D03A               	goto	l550
  3257                           
  3258                           ;usb_device.c: 1375: {
  3259                           ;usb_device.c: 1376: ctrl_trf_session_owner = 1;
  3260  001A5E  0E01               	movlw	1
  3261  001A60  6E3D               	movwf	_ctrl_trf_session_owner,c
  3262                           
  3263                           ;usb_device.c: 1377: pSrc.bRom = (const BYTE*)&CFG01;
  3264  001A62  0E3B               	movlw	low _CFG01
  3265  001A64  6E20               	movwf	_pSrc,c
  3266  001A66  0E0F               	movlw	high _CFG01
  3267  001A68  6E21               	movwf	_pSrc+1,c
  3268                           
  3269                           ;usb_device.c: 1378: wCount.Val = sizeof(CFG01);
  3270  001A6A  0E00               	movlw	0
  3271  001A6C  6E2A               	movwf	_wCount+1,c
  3272  001A6E  0E29               	movlw	41
  3273  001A70                     L5:
  3274  001A70  6E29               	movwf	_wCount,c
  3275                           
  3276                           ;usb_device.c: 1379: }
  3277                           ;usb_device.c: 1380: break;
  3278  001A72  D02F               	goto	l550
  3279  001A74                     
  3280                           ;usb_device.c: 1382: ctrl_trf_session_owner = 1;
  3281  001A74  0E01               	movlw	1
  3282  001A76  6E3D               	movwf	_ctrl_trf_session_owner,c
  3283                           
  3284                           ;usb_device.c: 1383: pSrc.bRom = *(USB_SD_Ptr+SetupPkt.bDscIndex);
  3285  001A78  5003               	movf	_SetupPkt+2,w,c
  3286  001A7A  0D02               	mullw	2
  3287  001A7C  0E01               	movlw	low _USB_SD_Ptr
  3288  001A7E  24F3               	addwf	prodl,w,c
  3289  001A80  6EF6               	movwf	tblptrl,c
  3290  001A82  0E0F               	movlw	high _USB_SD_Ptr
  3291  001A84  20F4               	addwfc	prodh,w,c
  3292  001A86  6EF7               	movwf	tblptrh,c
  3293  001A88                     	if	0	;There are less than 3 active tblptr bytes
  3294  001A88                     	endif
  3295  001A88  0009               	tblrd		*+
  3296  001A8A  CFF5 F020          	movff	tablat,_pSrc
  3297  001A8E  000A               	tblrd		*-
  3298  001A90  CFF5 F021          	movff	tablat,_pSrc+1
  3299                           
  3300                           ;usb_device.c: 1384: wCount.Val = *pSrc.bRom;
  3301  001A94  C020  FFF6         	movff	_pSrc,tblptrl
  3302  001A98  C021  FFF7         	movff	_pSrc+1,tblptrh
  3303  001A9C  6AF8               	clrf	tblptru,c
  3304  001A9E  0E0E               	movlw	(high __ramtop+-1)
  3305  001AA0  64F7               	cpfsgt	tblptrh,c
  3306  001AA2  D003               	bra	u1417
  3307  001AA4  0008               	tblrd		*
  3308  001AA6  50F5               	movf	tablat,w,c
  3309  001AA8  D005               	bra	u1410
  3310  001AAA                     u1417:
  3311  001AAA  CFF6 FFE1          	movff	tblptrl,fsr1l
  3312  001AAE  CFF7 FFE2          	movff	tblptrh,fsr1h
  3313  001AB2  50E7               	movf	indf1,w,c
  3314  001AB4                     u1410:
  3315  001AB4  6E4A               	movwf	??_USBStdGetDscHandler& (0+255),c
  3316  001AB6  504A               	movf	??_USBStdGetDscHandler,w,c
  3317  001AB8  6E29               	movwf	_wCount,c
  3318  001ABA  6A2A               	clrf	_wCount+1,c
  3319                           
  3320                           ;usb_device.c: 1386: }
  3321                           
  3322                           ;usb_device.c: 1385: break;
  3323  001ABC  D00A               	goto	l550
  3324  001ABE                     l548:
  3325  001ABE  5004               	movf	_SetupPkt+3,w,c
  3326                           
  3327                           ; Switch size 1, requested type "space"
  3328                           ; Number of cases is 3, Range of values is 1 to 3
  3329                           ; switch strategies available:
  3330                           ; Name         Instructions Cycles
  3331                           ; simple_byte           10     6 (average)
  3332                           ;	Chosen strategy is simple_byte
  3333  001AC0  0A01               	xorlw	1	; case 1
  3334  001AC2  B4D8               	btfsc	status,2,c
  3335  001AC4  D7C1               	goto	l549
  3336  001AC6  0A03               	xorlw	3	; case 2
  3337  001AC8  B4D8               	btfsc	status,2,c
  3338  001ACA  D7C6               	goto	l551
  3339  001ACC  0A01               	xorlw	1	; case 3
  3340  001ACE  B4D8               	btfsc	status,2,c
  3341  001AD0  D7D1               	goto	l553
  3342  001AD2                     l550:
  3343                           
  3344                           ;usb_device.c: 1388: usb_stat.ctrl_trf_mem = 1;
  3345  001AD2  823A               	bsf	_usb_stat,1,c
  3346  001AD4  0012               	return	
  3347  001AD6                     __end_of_USBStdGetDscHandler:
  3348                           	opt stack 0
  3349                           stkptr	equ	0xFFC
  3350                           tblptru	equ	0xFF8
  3351                           tblptrh	equ	0xFF7
  3352                           tblptrl	equ	0xFF6
  3353                           tablat	equ	0xFF5
  3354                           prodh	equ	0xFF4
  3355                           prodl	equ	0xFF3
  3356                           intcon	equ	0xFF2
  3357                           wreg	equ	0xFE8
  3358                           indf1	equ	0xFE7
  3359                           fsr1h	equ	0xFE2
  3360                           fsr1l	equ	0xFE1
  3361                           indf2	equ	0xFDF
  3362                           postinc2	equ	0xFDE
  3363                           postdec2	equ	0xFDD
  3364                           fsr2h	equ	0xFDA
  3365                           fsr2l	equ	0xFD9
  3366                           status	equ	0xFD8
  3367                           
  3368 ;; *************** function _USBStdFeatureReqHandler *****************
  3369 ;; Defined at:
  3370 ;;		line 1516 in file "../Source/c/usb_device.c"
  3371 ;; Parameters:    Size  Location     Type
  3372 ;;		None
  3373 ;; Auto vars:     Size  Location     Type
  3374 ;;		None
  3375 ;; Return value:  Size  Location     Type
  3376 ;;                  1    wreg      void 
  3377 ;; Registers used:
  3378 ;;		wreg, fsr2l, fsr2h, status,2, status,0, prodl, prodh
  3379 ;; Tracked objects:
  3380 ;;		On entry : 0/0
  3381 ;;		On exit  : 0/0
  3382 ;;		Unchanged: 0/0
  3383 ;; Data sizes:     COMRAM   BANK0   BANK1   BANK2   BANK3  BANK4h   BANK5   BANK6   BANK7   BANK8   BANK9  BANK10  BANK1
      +1  BANK12  BANK13  BANK14
  3384 ;;      Params:         0       0       0       0       0       0       0       0       0       0       0       0       
      +0       0       0       0
  3385 ;;      Locals:         0       0       0       0       0       0       0       0       0       0       0       0       
      +0       0       0       0
  3386 ;;      Temps:          4       0       0       0       0       0       0       0       0       0       0       0       
      +0       0       0       0
  3387 ;;      Totals:         4       0       0       0       0       0       0       0       0       0       0       0       
      +0       0       0       0
  3388 ;;Total ram usage:        4 bytes
  3389 ;; Hardware stack levels used:    1
  3390 ;; This function calls:
  3391 ;;		Nothing
  3392 ;; This function is called by:
  3393 ;;		_USBCheckStdRequest
  3394 ;; This function uses a non-reentrant model
  3395 ;;
  3396                           
  3397                           	psect	text15
  3398  00160E                     __ptext15:
  3399                           	opt stack 0
  3400  00160E                     _USBStdFeatureReqHandler:
  3401                           	opt stack 26
  3402                           
  3403                           ;usb_device.c: 1519: if((SetupPkt.bFeature == 0x01)&&(SetupPkt.Recipient == 0))
  3404                           
  3405                           ;incstack = 0
  3406  00160E  0403               	decf	_SetupPkt+2,w,c
  3407  001610  A4D8               	btfss	status,2,c
  3408  001612  D00E               	goto	l580
  3409  001614  5001               	movf	_SetupPkt,w,c
  3410  001616  0B1F               	andlw	31
  3411  001618  0900               	iorlw	0
  3412  00161A  A4D8               	btfss	status,2,c
  3413  00161C  D009               	goto	l580
  3414                           
  3415                           ;usb_device.c: 1520: {
  3416                           ;usb_device.c: 1521: ctrl_trf_session_owner = 1;
  3417  00161E  0E01               	movlw	1
  3418  001620  6E3D               	movwf	_ctrl_trf_session_owner,c
  3419                           
  3420                           ;usb_device.c: 1522: if(SetupPkt.bRequest == 3)
  3421  001622  0E03               	movlw	3
  3422  001624  1802               	xorwf	_SetupPkt+1,w,c
  3423  001626  A4D8               	btfss	status,2,c
  3424  001628  D002               	goto	l579
  3425                           
  3426                           ;usb_device.c: 1523: usb_stat.RemoteWakeup = 1;
  3427  00162A  803A               	bsf	_usb_stat,0,c
  3428  00162C  D001               	goto	l580
  3429  00162E                     l579:
  3430                           
  3431                           ;usb_device.c: 1524: else
  3432                           ;usb_device.c: 1525: usb_stat.RemoteWakeup = 0;
  3433  00162E  903A               	bcf	_usb_stat,0,c
  3434  001630                     l580:
  3435                           
  3436                           ;usb_device.c: 1526: }
  3437                           ;usb_device.c: 1529: if((SetupPkt.bFeature == 0x00)&&(SetupPkt.Recipient == 2)&&(SetupPk
      +                          t.EPNum != 0))
  3438  001630  5003               	movf	_SetupPkt+2,w,c
  3439  001632  A4D8               	btfss	status,2,c
  3440  001634  0012               	return	
  3441  001636  5001               	movf	_SetupPkt,w,c
  3442  001638  0B1F               	andlw	31
  3443  00163A  0A02               	xorlw	2
  3444  00163C  A4D8               	btfss	status,2,c
  3445  00163E  0012               	return	
  3446  001640  5005               	movf	_SetupPkt+4,w,c
  3447  001642  0B0F               	andlw	15
  3448  001644  0900               	iorlw	0
  3449  001646  B4D8               	btfsc	status,2,c
  3450  001648  0012               	return	
  3451                           
  3452                           ;usb_device.c: 1530: {
  3453                           ;usb_device.c: 1531: ctrl_trf_session_owner = 1;
  3454  00164A  0E01               	movlw	1
  3455  00164C  6E3D               	movwf	_ctrl_trf_session_owner,c
  3456                           
  3457                           ;usb_device.c: 1533: pDst.bRam = (uint8_t*)&ep0BoEven+(SetupPkt.EPNum*8)+(SetupPkt.EPDir
      +                          *4)+4;
  3458  00164E  5005               	movf	_SetupPkt+4,w,c
  3459  001650  0B0F               	andlw	15
  3460  001652  6E4A               	movwf	??_USBStdFeatureReqHandler& (0+255),c
  3461  001654  504A               	movf	??_USBStdFeatureReqHandler,w,c
  3462  001656  0D08               	mullw	8
  3463  001658  0E00               	movlw	0
  3464  00165A  6E4B               	movwf	(??_USBStdFeatureReqHandler+1)& (0+255),c
  3465  00165C  0E04               	movlw	4
  3466  00165E  6E4C               	movwf	(??_USBStdFeatureReqHandler+2)& (0+255),c
  3467  001660  50F3               	movf	prodl,w,c
  3468  001662  264B               	addwf	??_USBStdFeatureReqHandler+1,f,c
  3469  001664  50F4               	movf	prodh,w,c
  3470  001666  224C               	addwfc	??_USBStdFeatureReqHandler+2,f,c
  3471  001668  AE05               	btfss	_SetupPkt+4,7,c
  3472  00166A  D003               	goto	u1550
  3473  00166C  6A4D               	clrf	(??_USBStdFeatureReqHandler+3)& (0+255),c
  3474  00166E  2A4D               	incf	(??_USBStdFeatureReqHandler+3)& (0+255),f,c
  3475  001670  D001               	goto	u1558
  3476  001672                     u1550:
  3477  001672  6A4D               	clrf	(??_USBStdFeatureReqHandler+3)& (0+255),c
  3478  001674                     u1558:
  3479  001674  504D               	movf	??_USBStdFeatureReqHandler+3,w,c
  3480  001676  0D04               	mullw	4
  3481  001678  50F3               	movf	prodl,w,c
  3482  00167A  264B               	addwf	??_USBStdFeatureReqHandler+1,f,c
  3483  00167C  50F4               	movf	prodh,w,c
  3484  00167E  224C               	addwfc	??_USBStdFeatureReqHandler+2,f,c
  3485  001680  0E04               	movlw	4
  3486  001682  244B               	addwf	??_USBStdFeatureReqHandler+1,w,c
  3487  001684  6E1D               	movwf	_pDst,c
  3488  001686  0E00               	movlw	0
  3489  001688  204C               	addwfc	??_USBStdFeatureReqHandler+2,w,c
  3490  00168A  6E1E               	movwf	_pDst+1,c
  3491                           
  3492                           ;usb_device.c: 1535: if(SetupPkt.bRequest == 3)
  3493  00168C  0E03               	movlw	3
  3494  00168E  1802               	xorwf	_SetupPkt+1,w,c
  3495  001690  A4D8               	btfss	status,2,c
  3496  001692  D00D               	goto	l582
  3497                           
  3498                           ;usb_device.c: 1536: {
  3499                           ;usb_device.c: 1537: *pDst.bRam = 0x04;
  3500  001694  C01D  FFD9         	movff	_pDst,fsr2l
  3501  001698  C01E  FFDA         	movff	_pDst+1,fsr2h
  3502  00169C  0E04               	movlw	4
  3503  00169E  6EDF               	movwf	indf2,c
  3504                           
  3505                           ;usb_device.c: 1538: *pDst.bRam |= 0x80;
  3506  0016A0  C01D  FFD9         	movff	_pDst,fsr2l
  3507  0016A4  C01E  FFDA         	movff	_pDst+1,fsr2h
  3508  0016A8  0E00               	movlw	0
  3509  0016AA  8EDB               	bsf	plusw2,7,c
  3510                           
  3511                           ;usb_device.c: 1539: }
  3512  0016AC  0012               	return	
  3513  0016AE                     l582:
  3514                           
  3515                           ;usb_device.c: 1540: else
  3516                           ;usb_device.c: 1541: {
  3517                           ;usb_device.c: 1542: if(SetupPkt.EPDir == 1)
  3518  0016AE  AE05               	btfss	_SetupPkt+4,7,c
  3519  0016B0  D007               	goto	l584
  3520                           
  3521                           ;usb_device.c: 1543: *pDst.bRam = 0x00|0x40;
  3522  0016B2  C01D  FFD9         	movff	_pDst,fsr2l
  3523  0016B6  C01E  FFDA         	movff	_pDst+1,fsr2h
  3524  0016BA  0E40               	movlw	64
  3525  0016BC  6EDF               	movwf	indf2,c
  3526  0016BE  0012               	return	
  3527  0016C0                     l584:
  3528                           
  3529                           ;usb_device.c: 1544: else
  3530                           ;usb_device.c: 1545: {
  3531                           ;usb_device.c: 1546: *pDst.bRam = 0x00|0x08;
  3532  0016C0  C01D  FFD9         	movff	_pDst,fsr2l
  3533  0016C4  C01E  FFDA         	movff	_pDst+1,fsr2h
  3534  0016C8  0E08               	movlw	8
  3535  0016CA  6EDF               	movwf	indf2,c
  3536                           
  3537                           ;usb_device.c: 1547: *pDst.bRam |= 0x80;
  3538  0016CC  C01D  FFD9         	movff	_pDst,fsr2l
  3539  0016D0  C01E  FFDA         	movff	_pDst+1,fsr2h
  3540  0016D4  0E00               	movlw	0
  3541  0016D6  8EDB               	bsf	plusw2,7,c
  3542  0016D8  0012               	return	
  3543  0016DA                     __end_of_USBStdFeatureReqHandler:
  3544                           	opt stack 0
  3545                           stkptr	equ	0xFFC
  3546                           tblptru	equ	0xFF8
  3547                           tblptrh	equ	0xFF7
  3548                           tblptrl	equ	0xFF6
  3549                           tablat	equ	0xFF5
  3550                           prodh	equ	0xFF4
  3551                           prodl	equ	0xFF3
  3552                           intcon	equ	0xFF2
  3553                           wreg	equ	0xFE8
  3554                           indf1	equ	0xFE7
  3555                           fsr1h	equ	0xFE2
  3556                           fsr1l	equ	0xFE1
  3557                           indf2	equ	0xFDF
  3558                           postinc2	equ	0xFDE
  3559                           postdec2	equ	0xFDD
  3560                           plusw2	equ	0xFDB
  3561                           fsr2h	equ	0xFDA
  3562                           fsr2l	equ	0xFD9
  3563                           status	equ	0xFD8
  3564                           
  3565 ;; *************** function _USBCBCheckOtherReq *****************
  3566 ;; Defined at:
  3567 ;;		line 989 in file "../Source/c/main.c"
  3568 ;; Parameters:    Size  Location     Type
  3569 ;;		None
  3570 ;; Auto vars:     Size  Location     Type
  3571 ;;		None
  3572 ;; Return value:  Size  Location     Type
  3573 ;;                  1    wreg      void 
  3574 ;; Registers used:
  3575 ;;		wreg, status,2, status,0, cstack
  3576 ;; Tracked objects:
  3577 ;;		On entry : 0/0
  3578 ;;		On exit  : 0/0
  3579 ;;		Unchanged: 0/0
  3580 ;; Data sizes:     COMRAM   BANK0   BANK1   BANK2   BANK3  BANK4h   BANK5   BANK6   BANK7   BANK8   BANK9  BANK10  BANK1
      +1  BANK12  BANK13  BANK14
  3581 ;;      Params:         0       0       0       0       0       0       0       0       0       0       0       0       
      +0       0       0       0
  3582 ;;      Locals:         0       0       0       0       0       0       0       0       0       0       0       0       
      +0       0       0       0
  3583 ;;      Temps:          0       0       0       0       0       0       0       0       0       0       0       0       
      +0       0       0       0
  3584 ;;      Totals:         0       0       0       0       0       0       0       0       0       0       0       0       
      +0       0       0       0
  3585 ;;Total ram usage:        0 bytes
  3586 ;; Hardware stack levels used:    1
  3587 ;; Hardware stack levels required when called:    2
  3588 ;; This function calls:
  3589 ;;		_USBCheckHIDRequest
  3590 ;; This function is called by:
  3591 ;;		_USBCtrlTrfSetupHandler
  3592 ;; This function uses a non-reentrant model
  3593 ;;
  3594                           
  3595                           	psect	text16
  3596  001FE6                     __ptext16:
  3597                           	opt stack 0
  3598  001FE6                     _USBCBCheckOtherReq:
  3599                           	opt stack 25
  3600                           
  3601                           ;main.c: 991: USBCheckHIDRequest();
  3602                           
  3603                           ;incstack = 0
  3604  001FE6  EC29  F00A         	call	_USBCheckHIDRequest	;wreg free
  3605  001FEA  0012               	return		;funcret
  3606  001FEC                     __end_of_USBCBCheckOtherReq:
  3607                           	opt stack 0
  3608                           stkptr	equ	0xFFC
  3609                           tblptru	equ	0xFF8
  3610                           tblptrh	equ	0xFF7
  3611                           tblptrl	equ	0xFF6
  3612                           tablat	equ	0xFF5
  3613                           prodh	equ	0xFF4
  3614                           prodl	equ	0xFF3
  3615                           intcon	equ	0xFF2
  3616                           wreg	equ	0xFE8
  3617                           indf1	equ	0xFE7
  3618                           fsr1h	equ	0xFE2
  3619                           fsr1l	equ	0xFE1
  3620                           indf2	equ	0xFDF
  3621                           postinc2	equ	0xFDE
  3622                           postdec2	equ	0xFDD
  3623                           plusw2	equ	0xFDB
  3624                           fsr2h	equ	0xFDA
  3625                           fsr2l	equ	0xFD9
  3626                           status	equ	0xFD8
  3627                           
  3628 ;; *************** function _USBCheckHIDRequest *****************
  3629 ;; Defined at:
  3630 ;;		line 59 in file "../Source/c/usb_device_hid.c"
  3631 ;; Parameters:    Size  Location     Type
  3632 ;;		None
  3633 ;; Auto vars:     Size  Location     Type
  3634 ;;		None
  3635 ;; Return value:  Size  Location     Type
  3636 ;;                  1    wreg      void 
  3637 ;; Registers used:
  3638 ;;		wreg, status,2, status,0, cstack
  3639 ;; Tracked objects:
  3640 ;;		On entry : 0/0
  3641 ;;		On exit  : 0/0
  3642 ;;		Unchanged: 0/0
  3643 ;; Data sizes:     COMRAM   BANK0   BANK1   BANK2   BANK3  BANK4h   BANK5   BANK6   BANK7   BANK8   BANK9  BANK10  BANK1
      +1  BANK12  BANK13  BANK14
  3644 ;;      Params:         0       0       0       0       0       0       0       0       0       0       0       0       
      +0       0       0       0
  3645 ;;      Locals:         0       0       0       0       0       0       0       0       0       0       0       0       
      +0       0       0       0
  3646 ;;      Temps:          0       0       0       0       0       0       0       0       0       0       0       0       
      +0       0       0       0
  3647 ;;      Totals:         0       0       0       0       0       0       0       0       0       0       0       0       
      +0       0       0       0
  3648 ;;Total ram usage:        0 bytes
  3649 ;; Hardware stack levels used:    1
  3650 ;; Hardware stack levels required when called:    1
  3651 ;; This function calls:
  3652 ;;		_HIDGetReportHandler
  3653 ;;		_HIDSetReportHandler
  3654 ;; This function is called by:
  3655 ;;		_USBCBCheckOtherReq
  3656 ;; This function uses a non-reentrant model
  3657 ;;
  3658                           
  3659                           	psect	text17
  3660  001452                     __ptext17:
  3661                           	opt stack 0
  3662  001452                     _USBCheckHIDRequest:
  3663                           	opt stack 25
  3664                           
  3665                           ;usb_device_hid.c: 61: if(SetupPkt.Recipient != 1) return;
  3666                           
  3667                           ;incstack = 0
  3668  001452  5001               	movf	_SetupPkt,w,c
  3669  001454  0B1F               	andlw	31
  3670  001456  06E8               	decf	wreg,f,c
  3671  001458  A4D8               	btfss	status,2,c
  3672  00145A  0012               	return	
  3673                           
  3674                           ;usb_device_hid.c: 62: if(SetupPkt.bIntfID != 0x00) return;
  3675  00145C  5005               	movf	_SetupPkt+4,w,c
  3676  00145E  A4D8               	btfss	status,2,c
  3677  001460  0012               	return	
  3678                           
  3679                           ;usb_device_hid.c: 69: if(SetupPkt.bRequest == 6)
  3680  001462  0E06               	movlw	6
  3681  001464  1802               	xorwf	_SetupPkt+1,w,c
  3682  001466  B4D8               	btfsc	status,2,c
  3683  001468  D01C               	goto	l648
  3684  00146A  D024               	goto	l647
  3685  00146C                     
  3686                           ;usb_device_hid.c: 74: ctrl_trf_session_owner = 2;
  3687  00146C  0E02               	movlw	2
  3688  00146E  6E3D               	movwf	_ctrl_trf_session_owner,c
  3689                           
  3690                           ;usb_device_hid.c: 75: pSrc.bRom = &CFG01[18];
  3691  001470  0E4D               	movlw	low (_CFG01+18)
  3692  001472  6E20               	movwf	_pSrc,c
  3693  001474  0E0F               	movlw	high (_CFG01+18)
  3694  001476  6E21               	movwf	_pSrc+1,c
  3695                           
  3696                           ;usb_device_hid.c: 76: wCount.Val = sizeof(USB_HID_DSC);
  3697  001478  0E00               	movlw	0
  3698  00147A  6E2A               	movwf	_wCount+1,c
  3699  00147C  0E09               	movlw	9
  3700  00147E  D00F               	goto	L6
  3701  001480                     
  3702                           ;usb_device_hid.c: 79: ctrl_trf_session_owner = 2;
  3703  001480  0E02               	movlw	2
  3704  001482  6E3D               	movwf	_ctrl_trf_session_owner,c
  3705                           
  3706                           ;usb_device_hid.c: 80: { if(usb_active_cfg == 1) pSrc.bRom = (const uint8_t*)&hid_rpt01;
      +                           };
  3707  001484  0449               	decf	_usb_active_cfg,w,c
  3708  001486  A4D8               	btfss	status,2,c
  3709  001488  D004               	goto	l652
  3710  00148A  0E8A               	movlw	low _hid_rpt01
  3711  00148C  6E20               	movwf	_pSrc,c
  3712  00148E  0E0F               	movlw	high _hid_rpt01
  3713  001490  6E21               	movwf	_pSrc+1,c
  3714  001492                     l652:
  3715                           
  3716                           ;usb_device_hid.c: 81: { if(usb_active_cfg == 1) wCount.Val = sizeof(hid_rpt01); };
  3717  001492  0449               	decf	_usb_active_cfg,w,c
  3718  001494  A4D8               	btfss	status,2,c
  3719  001496  D00D               	goto	l650
  3720  001498  0E00               	movlw	0
  3721  00149A  6E2A               	movwf	_wCount+1,c
  3722  00149C  0E1D               	movlw	29
  3723  00149E                     L6:
  3724  00149E  6E29               	movwf	_wCount,c
  3725                           
  3726                           ;usb_device_hid.c: 86: }
  3727                           
  3728                           ;usb_device_hid.c: 85: break;
  3729                           
  3730                           ;usb_device_hid.c: 83: case 0x23:
  3731                           
  3732                           ;usb_device_hid.c: 82: break;
  3733  0014A0  D008               	goto	l650
  3734  0014A2                     l648:
  3735  0014A2  5004               	movf	_SetupPkt+3,w,c
  3736                           
  3737                           ; Switch size 1, requested type "space"
  3738                           ; Number of cases is 3, Range of values is 33 to 35
  3739                           ; switch strategies available:
  3740                           ; Name         Instructions Cycles
  3741                           ; simple_byte           10     6 (average)
  3742                           ;	Chosen strategy is simple_byte
  3743  0014A4  0A21               	xorlw	33	; case 33
  3744  0014A6  B4D8               	btfsc	status,2,c
  3745  0014A8  D7E1               	goto	l649
  3746  0014AA  0A03               	xorlw	3	; case 34
  3747  0014AC  B4D8               	btfsc	status,2,c
  3748  0014AE  D7E8               	goto	l651
  3749  0014B0  0A01               	xorlw	1	; case 35
  3750  0014B2                     l650:
  3751                           
  3752                           ;usb_device_hid.c: 87: usb_stat.ctrl_trf_mem = 1;
  3753  0014B2  823A               	bsf	_usb_stat,1,c
  3754  0014B4                     l647:
  3755                           
  3756                           ;usb_device_hid.c: 88: }
  3757                           ;usb_device_hid.c: 90: if(SetupPkt.RequestType != 0x01) return;
  3758  0014B4  3801               	swapf	_SetupPkt,w,c
  3759  0014B6  32E8               	rrcf	wreg,f,c
  3760  0014B8  0B03               	andlw	3
  3761  0014BA  06E8               	decf	wreg,f,c
  3762  0014BC  A4D8               	btfss	status,2,c
  3763  0014BE  0012               	return	
  3764  0014C0  D024               	goto	l656
  3765  0014C2                     
  3766                           ;usb_device_hid.c: 94: HIDGetReportHandler();
  3767  0014C2  ECF7  F00F         	call	_HIDGetReportHandler	;wreg free
  3768                           
  3769                           ;usb_device_hid.c: 95: break;
  3770  0014C6  0012               	return	
  3771  0014C8                     
  3772                           ;usb_device_hid.c: 97: HIDSetReportHandler();
  3773  0014C8  ECF6  F00F         	call	_HIDSetReportHandler	;wreg free
  3774                           
  3775                           ;usb_device_hid.c: 98: break;
  3776  0014CC  0012               	return	
  3777  0014CE                     
  3778                           ;usb_device_hid.c: 100: ctrl_trf_session_owner = 2;
  3779  0014CE  0E02               	movlw	2
  3780  0014D0  6E3D               	movwf	_ctrl_trf_session_owner,c
  3781                           
  3782                           ;usb_device_hid.c: 101: pSrc.bRam = (uint8_t*)&idle_rate;
  3783  0014D2  0E47               	movlw	low _idle_rate
  3784  0014D4  6E20               	movwf	_pSrc,c
  3785  0014D6  0E00               	movlw	high _idle_rate
  3786  0014D8  6E21               	movwf	_pSrc+1,c
  3787                           
  3788                           ;usb_device_hid.c: 102: usb_stat.ctrl_trf_mem = 0;
  3789  0014DA  923A               	bcf	_usb_stat,1,c
  3790                           
  3791                           ;usb_device_hid.c: 103: wCount.v[0] = 1;
  3792  0014DC  0E01               	movlw	1
  3793  0014DE  6E29               	movwf	_wCount,c
  3794                           
  3795                           ;usb_device_hid.c: 104: break;
  3796  0014E0  0012               	return	
  3797  0014E2                     
  3798                           ;usb_device_hid.c: 106: ctrl_trf_session_owner = 2;
  3799  0014E2  0E02               	movlw	2
  3800  0014E4  6E3D               	movwf	_ctrl_trf_session_owner,c
  3801                           
  3802                           ;usb_device_hid.c: 108: idle_rate = SetupPkt.W_Value.v[1];
  3803  0014E6  C004  F047         	movff	_SetupPkt+3,_idle_rate
  3804                           
  3805                           ;usb_device_hid.c: 109: break;
  3806  0014EA  0012               	return	
  3807  0014EC                     
  3808                           ;usb_device_hid.c: 111: ctrl_trf_session_owner = 2;
  3809  0014EC  0E02               	movlw	2
  3810  0014EE  6E3D               	movwf	_ctrl_trf_session_owner,c
  3811                           
  3812                           ;usb_device_hid.c: 112: pSrc.bRam = (uint8_t*)&active_protocol;
  3813  0014F0  0E46               	movlw	low _active_protocol
  3814  0014F2  6E20               	movwf	_pSrc,c
  3815  0014F4  0E00               	movlw	high _active_protocol
  3816  0014F6  6E21               	movwf	_pSrc+1,c
  3817                           
  3818                           ;usb_device_hid.c: 113: usb_stat.ctrl_trf_mem = 0;
  3819  0014F8  923A               	bcf	_usb_stat,1,c
  3820                           
  3821                           ;usb_device_hid.c: 114: wCount.v[0] = 1;
  3822  0014FA  0E01               	movlw	1
  3823  0014FC  6E29               	movwf	_wCount,c
  3824                           
  3825                           ;usb_device_hid.c: 115: break;
  3826  0014FE  0012               	return	
  3827  001500                     
  3828                           ;usb_device_hid.c: 117: ctrl_trf_session_owner = 2;
  3829  001500  0E02               	movlw	2
  3830  001502  6E3D               	movwf	_ctrl_trf_session_owner,c
  3831                           
  3832                           ;usb_device_hid.c: 119: active_protocol = SetupPkt.W_Value.v[0];
  3833  001504  C003  F046         	movff	_SetupPkt+2,_active_protocol
  3834                           
  3835                           ;usb_device_hid.c: 121: }
  3836                           
  3837                           ;usb_device_hid.c: 120: break;
  3838  001508  0012               	return	
  3839  00150A                     l656:
  3840  00150A  5002               	movf	_SetupPkt+1,w,c
  3841                           
  3842                           ; Switch size 1, requested type "space"
  3843                           ; Number of cases is 6, Range of values is 1 to 11
  3844                           ; switch strategies available:
  3845                           ; Name         Instructions Cycles
  3846                           ; simple_byte           19    10 (average)
  3847                           ;	Chosen strategy is simple_byte
  3848  00150C  0A01               	xorlw	1	; case 1
  3849  00150E  B4D8               	btfsc	status,2,c
  3850  001510  D7D8               	goto	l657
  3851  001512  0A03               	xorlw	3	; case 2
  3852  001514  B4D8               	btfsc	status,2,c
  3853  001516  D7DB               	goto	l660
  3854  001518  0A01               	xorlw	1	; case 3
  3855  00151A  B4D8               	btfsc	status,2,c
  3856  00151C  D7E7               	goto	l662
  3857  00151E  0A0A               	xorlw	10	; case 9
  3858  001520  B4D8               	btfsc	status,2,c
  3859  001522  D7D2               	goto	l659
  3860  001524  0A03               	xorlw	3	; case 10
  3861  001526  B4D8               	btfsc	status,2,c
  3862  001528  D7DC               	goto	l661
  3863  00152A  0A01               	xorlw	1	; case 11
  3864  00152C  A4D8               	btfss	status,2,c
  3865  00152E  0012               	return	
  3866  001530  D7E7               	goto	l663
  3867  001532                     __end_of_USBCheckHIDRequest:
  3868                           	opt stack 0
  3869                           stkptr	equ	0xFFC
  3870                           tblptru	equ	0xFF8
  3871                           tblptrh	equ	0xFF7
  3872                           tblptrl	equ	0xFF6
  3873                           tablat	equ	0xFF5
  3874                           prodh	equ	0xFF4
  3875                           prodl	equ	0xFF3
  3876                           intcon	equ	0xFF2
  3877                           wreg	equ	0xFE8
  3878                           indf1	equ	0xFE7
  3879                           fsr1h	equ	0xFE2
  3880                           fsr1l	equ	0xFE1
  3881                           indf2	equ	0xFDF
  3882                           postinc2	equ	0xFDE
  3883                           postdec2	equ	0xFDD
  3884                           plusw2	equ	0xFDB
  3885                           fsr2h	equ	0xFDA
  3886                           fsr2l	equ	0xFD9
  3887                           status	equ	0xFD8
  3888                           
  3889 ;; *************** function _HIDSetReportHandler *****************
  3890 ;; Defined at:
  3891 ;;		line 130 in file "../Source/c/usb_device_hid.c"
  3892 ;; Parameters:    Size  Location     Type
  3893 ;;		None
  3894 ;; Auto vars:     Size  Location     Type
  3895 ;;		None
  3896 ;; Return value:  Size  Location     Type
  3897 ;;                  1    wreg      void 
  3898 ;; Registers used:
  3899 ;;		None
  3900 ;; Tracked objects:
  3901 ;;		On entry : 0/0
  3902 ;;		On exit  : 0/0
  3903 ;;		Unchanged: 0/0
  3904 ;; Data sizes:     COMRAM   BANK0   BANK1   BANK2   BANK3  BANK4h   BANK5   BANK6   BANK7   BANK8   BANK9  BANK10  BANK1
      +1  BANK12  BANK13  BANK14
  3905 ;;      Params:         0       0       0       0       0       0       0       0       0       0       0       0       
      +0       0       0       0
  3906 ;;      Locals:         0       0       0       0       0       0       0       0       0       0       0       0       
      +0       0       0       0
  3907 ;;      Temps:          0       0       0       0       0       0       0       0       0       0       0       0       
      +0       0       0       0
  3908 ;;      Totals:         0       0       0       0       0       0       0       0       0       0       0       0       
      +0       0       0       0
  3909 ;;Total ram usage:        0 bytes
  3910 ;; Hardware stack levels used:    1
  3911 ;; This function calls:
  3912 ;;		Nothing
  3913 ;; This function is called by:
  3914 ;;		_USBCheckHIDRequest
  3915 ;; This function uses a non-reentrant model
  3916 ;;
  3917                           
  3918                           	psect	text18
  3919  001FEC                     __ptext18:
  3920                           	opt stack 0
  3921  001FEC                     _HIDSetReportHandler:
  3922                           	opt stack 25
  3923                           
  3924                           ;incstack = 0
  3925  001FEC  0012               	return		;funcret
  3926  001FEE                     __end_of_HIDSetReportHandler:
  3927                           	opt stack 0
  3928                           stkptr	equ	0xFFC
  3929                           tblptru	equ	0xFF8
  3930                           tblptrh	equ	0xFF7
  3931                           tblptrl	equ	0xFF6
  3932                           tablat	equ	0xFF5
  3933                           prodh	equ	0xFF4
  3934                           prodl	equ	0xFF3
  3935                           intcon	equ	0xFF2
  3936                           wreg	equ	0xFE8
  3937                           indf1	equ	0xFE7
  3938                           fsr1h	equ	0xFE2
  3939                           fsr1l	equ	0xFE1
  3940                           indf2	equ	0xFDF
  3941                           postinc2	equ	0xFDE
  3942                           postdec2	equ	0xFDD
  3943                           plusw2	equ	0xFDB
  3944                           fsr2h	equ	0xFDA
  3945                           fsr2l	equ	0xFD9
  3946                           status	equ	0xFD8
  3947                           
  3948 ;; *************** function _HIDGetReportHandler *****************
  3949 ;; Defined at:
  3950 ;;		line 125 in file "../Source/c/usb_device_hid.c"
  3951 ;; Parameters:    Size  Location     Type
  3952 ;;		None
  3953 ;; Auto vars:     Size  Location     Type
  3954 ;;		None
  3955 ;; Return value:  Size  Location     Type
  3956 ;;                  1    wreg      void 
  3957 ;; Registers used:
  3958 ;;		None
  3959 ;; Tracked objects:
  3960 ;;		On entry : 0/0
  3961 ;;		On exit  : 0/0
  3962 ;;		Unchanged: 0/0
  3963 ;; Data sizes:     COMRAM   BANK0   BANK1   BANK2   BANK3  BANK4h   BANK5   BANK6   BANK7   BANK8   BANK9  BANK10  BANK1
      +1  BANK12  BANK13  BANK14
  3964 ;;      Params:         0       0       0       0       0       0       0       0       0       0       0       0       
      +0       0       0       0
  3965 ;;      Locals:         0       0       0       0       0       0       0       0       0       0       0       0       
      +0       0       0       0
  3966 ;;      Temps:          0       0       0       0       0       0       0       0       0       0       0       0       
      +0       0       0       0
  3967 ;;      Totals:         0       0       0       0       0       0       0       0       0       0       0       0       
      +0       0       0       0
  3968 ;;Total ram usage:        0 bytes
  3969 ;; Hardware stack levels used:    1
  3970 ;; This function calls:
  3971 ;;		Nothing
  3972 ;; This function is called by:
  3973 ;;		_USBCheckHIDRequest
  3974 ;; This function uses a non-reentrant model
  3975 ;;
  3976                           
  3977                           	psect	text19
  3978  001FEE                     __ptext19:
  3979                           	opt stack 0
  3980  001FEE                     _HIDGetReportHandler:
  3981                           	opt stack 25
  3982                           
  3983                           ;incstack = 0
  3984  001FEE  0012               	return		;funcret
  3985  001FF0                     __end_of_HIDGetReportHandler:
  3986                           	opt stack 0
  3987                           stkptr	equ	0xFFC
  3988                           tblptru	equ	0xFF8
  3989                           tblptrh	equ	0xFF7
  3990                           tblptrl	equ	0xFF6
  3991                           tablat	equ	0xFF5
  3992                           prodh	equ	0xFF4
  3993                           prodl	equ	0xFF3
  3994                           intcon	equ	0xFF2
  3995                           wreg	equ	0xFE8
  3996                           indf1	equ	0xFE7
  3997                           fsr1h	equ	0xFE2
  3998                           fsr1l	equ	0xFE1
  3999                           indf2	equ	0xFDF
  4000                           postinc2	equ	0xFDE
  4001                           postdec2	equ	0xFDD
  4002                           plusw2	equ	0xFDB
  4003                           fsr2h	equ	0xFDA
  4004                           fsr2l	equ	0xFD9
  4005                           status	equ	0xFD8
  4006                           
  4007 ;; *************** function _USBCtrlTrfInHandler *****************
  4008 ;; Defined at:
  4009 ;;		line 993 in file "../Source/c/usb_device.c"
  4010 ;; Parameters:    Size  Location     Type
  4011 ;;		None
  4012 ;; Auto vars:     Size  Location     Type
  4013 ;;		None
  4014 ;; Return value:  Size  Location     Type
  4015 ;;                  1    wreg      void 
  4016 ;; Registers used:
  4017 ;;		wreg, fsr1l, fsr1h, fsr2l, fsr2h, status,2, status,0, tblptrl, tblptrh, tblptru, cstack
  4018 ;; Tracked objects:
  4019 ;;		On entry : 0/0
  4020 ;;		On exit  : 0/0
  4021 ;;		Unchanged: 0/0
  4022 ;; Data sizes:     COMRAM   BANK0   BANK1   BANK2   BANK3  BANK4h   BANK5   BANK6   BANK7   BANK8   BANK9  BANK10  BANK1
      +1  BANK12  BANK13  BANK14
  4023 ;;      Params:         0       0       0       0       0       0       0       0       0       0       0       0       
      +0       0       0       0
  4024 ;;      Locals:         0       0       0       0       0       0       0       0       0       0       0       0       
      +0       0       0       0
  4025 ;;      Temps:          0       0       0       0       0       0       0       0       0       0       0       0       
      +0       0       0       0
  4026 ;;      Totals:         0       0       0       0       0       0       0       0       0       0       0       0       
      +0       0       0       0
  4027 ;;Total ram usage:        0 bytes
  4028 ;; Hardware stack levels used:    1
  4029 ;; Hardware stack levels required when called:    1
  4030 ;; This function calls:
  4031 ;;		_USBCtrlTrfTxService
  4032 ;; This function is called by:
  4033 ;;		_USBDeviceTasks
  4034 ;; This function uses a non-reentrant model
  4035 ;;
  4036                           
  4037                           	psect	text20
  4038  001D22                     __ptext20:
  4039                           	opt stack 0
  4040  001D22                     _USBCtrlTrfInHandler:
  4041                           	opt stack 27
  4042                           
  4043                           ;usb_device.c: 998: if(usb_device_state == 4)
  4044                           
  4045                           ;incstack = 0
  4046  001D22  0E04               	movlw	4
  4047  001D24  1845               	xorwf	_usb_device_state,w,c
  4048  001D26  A4D8               	btfss	status,2,c
  4049  001D28  D00A               	goto	l488
  4050                           
  4051                           ;usb_device.c: 999: {
  4052                           ;usb_device.c: 1000: UADDR = SetupPkt.bDevADR;
  4053  001D2A  C003  FF38         	movff	_SetupPkt+2,3896	;volatile
  4054                           
  4055                           ;usb_device.c: 1001: if(UADDR > 0)
  4056  001D2E  010F               	movlb	15	; () banked
  4057  001D30  5138               	movf	56,w,b	;volatile
  4058  001D32  B4D8               	btfsc	status,2,c
  4059  001D34  D002               	goto	l487
  4060                           
  4061                           ; BSR set to: 15
  4062                           ;usb_device.c: 1002: usb_device_state = 5;
  4063  001D36  0E05               	movlw	5
  4064  001D38  D001               	goto	L7
  4065  001D3A                     l487:
  4066                           
  4067                           ; BSR set to: 15
  4068                           ;usb_device.c: 1003: else
  4069                           ;usb_device.c: 1004: usb_device_state = 3;
  4070                           
  4071                           ; BSR set to: 15
  4072  001D3A  0E03               	movlw	3
  4073  001D3C                     L7:
  4074  001D3C  6E45               	movwf	_usb_device_state,c
  4075  001D3E                     l488:
  4076                           
  4077                           ;usb_device.c: 1005: }
  4078                           ;usb_device.c: 1009: if(ctrl_trf_state == 1)
  4079                           
  4080                           ; BSR set to: 15
  4081                           
  4082                           ; BSR set to: 15
  4083  001D3E  043E               	decf	_ctrl_trf_state,w,c
  4084  001D40  A4D8               	btfss	status,2,c
  4085  001D42  0012               	return	
  4086                           
  4087                           ;usb_device.c: 1010: {
  4088                           ;usb_device.c: 1013: USBCtrlTrfTxService();
  4089  001D44  ECCB  F00B         	call	_USBCtrlTrfTxService	;wreg free
  4090                           
  4091                           ;usb_device.c: 1016: if(short_pkt_status == 2)
  4092  001D48  0E02               	movlw	2
  4093  001D4A  183C               	xorwf	_short_pkt_status,w,c
  4094  001D4C  A4D8               	btfss	status,2,c
  4095  001D4E  D005               	goto	l490
  4096                           
  4097                           ;usb_device.c: 1017: {
  4098                           ;usb_device.c: 1020: ep0Bi.Stat._byte = 0x04;
  4099  001D50  0E04               	movlw	4
  4100  001D52  0104               	movlb	4	; () banked
  4101  001D54  6F08               	movwf	8,b	;volatile
  4102                           
  4103                           ; BSR set to: 4
  4104                           ;usb_device.c: 1021: ep0Bi.Stat._byte |= 0x80;
  4105  001D56  8F08               	bsf	8,7,b	;volatile
  4106                           
  4107                           ;usb_device.c: 1022: }
  4108  001D58  0012               	return	
  4109  001D5A                     l490:
  4110                           
  4111                           ;usb_device.c: 1023: else
  4112                           ;usb_device.c: 1024: {
  4113                           ;usb_device.c: 1026: if(ep0Bi.Stat.DTS == 0)
  4114  001D5A  0104               	movlb	4	; () banked
  4115  001D5C  BD08               	btfsc	8,6,b	;volatile
  4116  001D5E  D002               	goto	l492
  4117                           
  4118                           ; BSR set to: 4
  4119                           ;usb_device.c: 1027: ep0Bi.Stat._byte = 0x40|0x08;
  4120  001D60  0E48               	movlw	72
  4121  001D62  D001               	goto	L8
  4122  001D64                     l492:
  4123                           
  4124                           ; BSR set to: 4
  4125                           ;usb_device.c: 1028: else
  4126                           ;usb_device.c: 1029: ep0Bi.Stat._byte = 0x00|0x08;
  4127                           
  4128                           ; BSR set to: 4
  4129  001D64  0E08               	movlw	8
  4130  001D66                     L8:
  4131  001D66  6F08               	movwf	8,b	;volatile
  4132                           
  4133                           ; BSR set to: 4
  4134                           ;usb_device.c: 1031: ep0Bi.Stat._byte |= 0x80;
  4135                           
  4136                           ; BSR set to: 4
  4137  001D68  8F08               	bsf	8,7,b	;volatile
  4138                           
  4139                           ; BSR set to: 4
  4140                           
  4141                           ; BSR set to: 4
  4142                           ;usb_device.c: 1032: }
  4143                           ;usb_device.c: 1033: }
  4144  001D6A  0012               	return	
  4145  001D6C                     __end_of_USBCtrlTrfInHandler:
  4146                           	opt stack 0
  4147                           stkptr	equ	0xFFC
  4148                           tblptru	equ	0xFF8
  4149                           tblptrh	equ	0xFF7
  4150                           tblptrl	equ	0xFF6
  4151                           tablat	equ	0xFF5
  4152                           prodh	equ	0xFF4
  4153                           prodl	equ	0xFF3
  4154                           intcon	equ	0xFF2
  4155                           wreg	equ	0xFE8
  4156                           indf1	equ	0xFE7
  4157                           fsr1h	equ	0xFE2
  4158                           fsr1l	equ	0xFE1
  4159                           indf2	equ	0xFDF
  4160                           postinc2	equ	0xFDE
  4161                           postdec2	equ	0xFDD
  4162                           plusw2	equ	0xFDB
  4163                           fsr2h	equ	0xFDA
  4164                           fsr2l	equ	0xFD9
  4165                           status	equ	0xFD8
  4166                           
  4167 ;; *************** function _USBCtrlTrfTxService *****************
  4168 ;; Defined at:
  4169 ;;		line 1063 in file "../Source/c/usb_device.c"
  4170 ;; Parameters:    Size  Location     Type
  4171 ;;		None
  4172 ;; Auto vars:     Size  Location     Type
  4173 ;;		None
  4174 ;; Return value:  Size  Location     Type
  4175 ;;                  1    wreg      void 
  4176 ;; Registers used:
  4177 ;;		wreg, fsr1l, fsr1h, fsr2l, fsr2h, status,2, status,0, tblptrl, tblptrh, tblptru
  4178 ;; Tracked objects:
  4179 ;;		On entry : 0/0
  4180 ;;		On exit  : 0/0
  4181 ;;		Unchanged: 0/0
  4182 ;; Data sizes:     COMRAM   BANK0   BANK1   BANK2   BANK3  BANK4h   BANK5   BANK6   BANK7   BANK8   BANK9  BANK10  BANK1
      +1  BANK12  BANK13  BANK14
  4183 ;;      Params:         0       0       0       0       0       0       0       0       0       0       0       0       
      +0       0       0       0
  4184 ;;      Locals:         0       0       0       0       0       0       0       0       0       0       0       0       
      +0       0       0       0
  4185 ;;      Temps:          0       0       0       0       0       0       0       0       0       0       0       0       
      +0       0       0       0
  4186 ;;      Totals:         0       0       0       0       0       0       0       0       0       0       0       0       
      +0       0       0       0
  4187 ;;Total ram usage:        0 bytes
  4188 ;; Hardware stack levels used:    1
  4189 ;; This function calls:
  4190 ;;		Nothing
  4191 ;; This function is called by:
  4192 ;;		_USBCtrlTrfInHandler
  4193 ;;		_USBCtrlEPServiceComplete
  4194 ;; This function uses a non-reentrant model
  4195 ;;
  4196                           
  4197                           	psect	text21
  4198  001796                     __ptext21:
  4199                           	opt stack 0
  4200  001796                     _USBCtrlTrfTxService:
  4201                           	opt stack 26
  4202                           
  4203                           ;usb_device.c: 1065: static uint8_t bytes_to_send;
  4204                           ;usb_device.c: 1070: bytes_to_send = 8;
  4205                           
  4206                           ;incstack = 0
  4207  001796  0E08               	movlw	8
  4208  001798  6E35               	movwf	USBCtrlTrfTxService@bytes_to_send,c
  4209                           
  4210                           ;usb_device.c: 1071: if(wCount.Val < 8)
  4211  00179A  502A               	movf	_wCount+1,w,c
  4212  00179C  E110               	bnz	l2449
  4213  00179E  0E08               	movlw	8
  4214  0017A0  5C29               	subwf	_wCount,w,c
  4215  0017A2  B0D8               	btfsc	status,0,c
  4216  0017A4  D00C               	goto	l503
  4217                           
  4218                           ;usb_device.c: 1072: {
  4219                           ;usb_device.c: 1075: bytes_to_send = wCount.Val;
  4220  0017A6  C029  F035         	movff	_wCount,USBCtrlTrfTxService@bytes_to_send
  4221                           
  4222                           ;usb_device.c: 1076: if(short_pkt_status == 0)
  4223  0017AA  503C               	movf	_short_pkt_status,w,c
  4224  0017AC  A4D8               	btfss	status,2,c
  4225  0017AE  D002               	goto	l501
  4226                           
  4227                           ;usb_device.c: 1077: {
  4228                           ;usb_device.c: 1078: short_pkt_status = 1;
  4229  0017B0  0E01               	movlw	1
  4230  0017B2  D004               	goto	L9
  4231  0017B4                     l501:
  4232                           
  4233                           ;usb_device.c: 1080: else if(short_pkt_status == 1)
  4234  0017B4  043C               	decf	_short_pkt_status,w,c
  4235  0017B6  A4D8               	btfss	status,2,c
  4236  0017B8  D002               	goto	l503
  4237                           
  4238                           ;usb_device.c: 1081: {
  4239                           ;usb_device.c: 1082: short_pkt_status = 2;
  4240  0017BA  0E02               	movlw	2
  4241  0017BC                     L9:
  4242  0017BC  6E3C               	movwf	_short_pkt_status,c
  4243  0017BE                     l503:
  4244  0017BE                     l2449:
  4245                           
  4246                           ;usb_device.c: 1083: }
  4247                           ;usb_device.c: 1084: }
  4248                           ;usb_device.c: 1087: ep0Bi.Cnt = bytes_to_send;
  4249  0017BE  C035  F409         	movff	USBCtrlTrfTxService@bytes_to_send,1033	;volatile
  4250                           
  4251                           ;usb_device.c: 1090: wCount.Val -= bytes_to_send;
  4252  0017C2  5035               	movf	USBCtrlTrfTxService@bytes_to_send,w,c
  4253  0017C4  5E29               	subwf	_wCount,f,c
  4254  0017C6  0E00               	movlw	0
  4255  0017C8  5A2A               	subwfb	_wCount+1,f,c
  4256                           
  4257                           ;usb_device.c: 1095: pDst.bRam = (uint8_t*)&CtrlTrfData;
  4258  0017CA  0E24               	movlw	36
  4259  0017CC  6E1D               	movwf	_pDst,c
  4260  0017CE  0E04               	movlw	4
  4261  0017D0  6E1E               	movwf	_pDst+1,c
  4262                           
  4263                           ;usb_device.c: 1096: if(usb_stat.ctrl_trf_mem == 1)
  4264  0017D2  B23A               	btfsc	_usb_stat,1,c
  4265  0017D4  D01B               	goto	l505
  4266  0017D6  D038               	goto	l509
  4267  0017D8                     
  4268                           ;usb_device.c: 1099: {
  4269                           ;usb_device.c: 1100: *pDst.bRam = *pSrc.bRom;
  4270  0017D8  C020  FFF6         	movff	_pSrc,tblptrl
  4271  0017DC  C021  FFF7         	movff	_pSrc+1,tblptrh
  4272  0017E0  6AF8               	clrf	tblptru,c
  4273  0017E2  C01D  FFD9         	movff	_pDst,fsr2l
  4274  0017E6  C01E  FFDA         	movff	_pDst+1,fsr2h
  4275  0017EA  0E0E               	movlw	(high __ramtop+-1)
  4276  0017EC  64F7               	cpfsgt	tblptrh,c
  4277  0017EE  D003               	bra	u1357
  4278  0017F0  0008               	tblrd		*
  4279  0017F2  50F5               	movf	tablat,w,c
  4280  0017F4  D005               	bra	u1350
  4281  0017F6                     u1357:
  4282  0017F6  CFF6 FFE1          	movff	tblptrl,fsr1l
  4283  0017FA  CFF7 FFE2          	movff	tblptrh,fsr1h
  4284  0017FE  50E7               	movf	indf1,w,c
  4285  001800                     u1350:
  4286  001800  6EDF               	movwf	indf2,c
  4287                           
  4288                           ;usb_device.c: 1101: pDst.bRam++;
  4289  001802  4A1D               	infsnz	_pDst,f,c
  4290  001804  2A1E               	incf	_pDst+1,f,c
  4291                           
  4292                           ;usb_device.c: 1102: pSrc.bRom++;
  4293  001806  4A20               	infsnz	_pSrc,f,c
  4294  001808  2A21               	incf	_pSrc+1,f,c
  4295                           
  4296                           ;usb_device.c: 1103: bytes_to_send--;
  4297  00180A  0635               	decf	USBCtrlTrfTxService@bytes_to_send,f,c
  4298  00180C                     l505:
  4299  00180C  5035               	movf	USBCtrlTrfTxService@bytes_to_send,w,c
  4300  00180E  B4D8               	btfsc	status,2,c
  4301  001810  0012               	return	
  4302  001812  D7E2               	goto	l506
  4303  001814                     
  4304                           ;usb_device.c: 1109: {
  4305                           ;usb_device.c: 1110: *pDst.bRam = *pSrc.bRam;
  4306  001814  C020  FFF6         	movff	_pSrc,tblptrl
  4307  001818  C021  FFF7         	movff	_pSrc+1,tblptrh
  4308  00181C  6AF8               	clrf	tblptru,c
  4309  00181E  C01D  FFD9         	movff	_pDst,fsr2l
  4310  001822  C01E  FFDA         	movff	_pDst+1,fsr2h
  4311  001826  0E0E               	movlw	(high __ramtop+-1)
  4312  001828  64F7               	cpfsgt	tblptrh,c
  4313  00182A  D003               	bra	u1377
  4314  00182C  0008               	tblrd		*
  4315  00182E  50F5               	movf	tablat,w,c
  4316  001830  D005               	bra	u1370
  4317  001832                     u1377:
  4318  001832  CFF6 FFE1          	movff	tblptrl,fsr1l
  4319  001836  CFF7 FFE2          	movff	tblptrh,fsr1h
  4320  00183A  50E7               	movf	indf1,w,c
  4321  00183C                     u1370:
  4322  00183C  6EDF               	movwf	indf2,c
  4323                           
  4324                           ;usb_device.c: 1111: pDst.bRam++;
  4325  00183E  4A1D               	infsnz	_pDst,f,c
  4326  001840  2A1E               	incf	_pDst+1,f,c
  4327                           
  4328                           ;usb_device.c: 1112: pSrc.bRam++;
  4329  001842  4A20               	infsnz	_pSrc,f,c
  4330  001844  2A21               	incf	_pSrc+1,f,c
  4331                           
  4332                           ;usb_device.c: 1113: bytes_to_send--;
  4333  001846  0635               	decf	USBCtrlTrfTxService@bytes_to_send,f,c
  4334  001848                     l509:
  4335  001848  5035               	movf	USBCtrlTrfTxService@bytes_to_send,w,c
  4336  00184A  B4D8               	btfsc	status,2,c
  4337  00184C  0012               	return	
  4338  00184E  D7E2               	goto	l510
  4339  001850                     __end_of_USBCtrlTrfTxService:
  4340                           	opt stack 0
  4341                           stkptr	equ	0xFFC
  4342                           tblptru	equ	0xFF8
  4343                           tblptrh	equ	0xFF7
  4344                           tblptrl	equ	0xFF6
  4345                           tablat	equ	0xFF5
  4346                           prodh	equ	0xFF4
  4347                           prodl	equ	0xFF3
  4348                           intcon	equ	0xFF2
  4349                           wreg	equ	0xFE8
  4350                           indf1	equ	0xFE7
  4351                           fsr1h	equ	0xFE2
  4352                           fsr1l	equ	0xFE1
  4353                           indf2	equ	0xFDF
  4354                           postinc2	equ	0xFDE
  4355                           postdec2	equ	0xFDD
  4356                           plusw2	equ	0xFDB
  4357                           fsr2h	equ	0xFDA
  4358                           fsr2l	equ	0xFD9
  4359                           status	equ	0xFD8
  4360                           
  4361 ;; *************** function _SignFlash *****************
  4362 ;; Defined at:
  4363 ;;		line 487 in file "../Source/c/boot_18fxxjxx.c"
  4364 ;; Parameters:    Size  Location     Type
  4365 ;;		None
  4366 ;; Auto vars:     Size  Location     Type
  4367 ;;  pROM            3   11[COMRAM] PTR  unsigned char 
  4368 ;;		 -> ROM(65527), 
  4369 ;; Return value:  Size  Location     Type
  4370 ;;                  1    wreg      void 
  4371 ;; Registers used:
  4372 ;;		wreg, fsr2l, fsr2h, status,2, status,0, tblptrl, tblptrh, tblptru, cstack
  4373 ;; Tracked objects:
  4374 ;;		On entry : 0/0
  4375 ;;		On exit  : 0/0
  4376 ;;		Unchanged: 0/0
  4377 ;; Data sizes:     COMRAM   BANK0   BANK1   BANK2   BANK3  BANK4h   BANK5   BANK6   BANK7   BANK8   BANK9  BANK10  BANK1
      +1  BANK12  BANK13  BANK14
  4378 ;;      Params:         0       0       0       0       0       0       0       0       0       0       0       0       
      +0       0       0       0
  4379 ;;      Locals:         3       0       0       0       0       0       0       0       0       0       0       0       
      +0       0       0       0
  4380 ;;      Temps:          4       0       0       0       0       0       0       0       0       0       0       0       
      +0       0       0       0
  4381 ;;      Totals:         7       0       0       0       0       0       0       0       0       0       0       0       
      +0       0       0       0
  4382 ;;Total ram usage:        7 bytes
  4383 ;; Hardware stack levels used:    1
  4384 ;; Hardware stack levels required when called:    3
  4385 ;; This function calls:
  4386 ;;		_ClearWatchdog
  4387 ;;		_EraseFlashPage
  4388 ;;		_UnlockAndActivate
  4389 ;; This function is called by:
  4390 ;;		_ProcessIO
  4391 ;; This function uses a non-reentrant model
  4392 ;;
  4393                           
  4394                           	psect	text22
  4395  00135E                     __ptext22:
  4396                           	opt stack 0
  4397  00135E                     _SignFlash:
  4398                           	opt stack 25
  4399                           
  4400                           ;boot_18fxxjxx.c: 489: static unsigned int i;
  4401                           ;boot_18fxxjxx.c: 490: far const uint8_t* pROM;
  4402                           ;boot_18fxxjxx.c: 494: pROM = (far const uint8_t*)(0x2006 & (uint32_t)(0x1000000 - 1024)
      +                          );
  4403                           
  4404                           ;incstack = 0
  4405  00135E  0E00               	movlw	0
  4406  001360  6E55               	movwf	SignFlash@pROM,c
  4407  001362  0E20               	movlw	32
  4408  001364  6E56               	movwf	SignFlash@pROM+1,c
  4409  001366  0E00               	movlw	0
  4410  001368  6E57               	movwf	SignFlash@pROM+2,c
  4411                           
  4412                           ;boot_18fxxjxx.c: 495: for(i = 0; i < 1024; i++)
  4413  00136A  0E00               	movlw	0
  4414  00136C  6E30               	movwf	SignFlash@i+1,c
  4415  00136E  0E00               	movlw	0
  4416  001370  6E2F               	movwf	SignFlash@i,c
  4417  001372  D017               	goto	l2967
  4418  001374                     
  4419                           ;boot_18fxxjxx.c: 496: {
  4420                           ;boot_18fxxjxx.c: 497: ProgrammingBuffer[i] = *pROM++;
  4421  001374  C055  FFF6         	movff	SignFlash@pROM,tblptrl
  4422  001378  C056  FFF7         	movff	SignFlash@pROM+1,tblptrh
  4423  00137C  C057  FFF8         	movff	SignFlash@pROM+2,tblptru
  4424  001380  0EAC               	movlw	low _ProgrammingBuffer
  4425  001382  242F               	addwf	SignFlash@i,w,c
  4426  001384  6ED9               	movwf	fsr2l,c
  4427  001386  0E04               	movlw	high _ProgrammingBuffer
  4428  001388  2030               	addwfc	SignFlash@i+1,w,c
  4429  00138A  6EDA               	movwf	fsr2h,c
  4430  00138C  0008               	tblrd		*
  4431  00138E  CFF5 FFDF          	movff	tablat,indf2
  4432  001392  0E01               	movlw	1
  4433  001394  2655               	addwf	SignFlash@pROM,f,c
  4434  001396  0E00               	movlw	0
  4435  001398  2256               	addwfc	SignFlash@pROM+1,f,c
  4436  00139A  0E00               	movlw	0
  4437  00139C  2257               	addwfc	SignFlash@pROM+2,f,c
  4438  00139E  4A2F               	infsnz	SignFlash@i,f,c
  4439  0013A0  2A30               	incf	SignFlash@i+1,f,c
  4440  0013A2                     l2967:
  4441  0013A2  0E04               	movlw	4
  4442  0013A4  5C30               	subwf	SignFlash@i+1,w,c
  4443  0013A6  A0D8               	btfss	status,0,c
  4444  0013A8  D7E5               	goto	l116
  4445                           
  4446                           ;boot_18fxxjxx.c: 498: }
  4447                           ;boot_18fxxjxx.c: 501: ProgrammingBuffer[(0x2006 & ~(uint32_t)(0x1000000 - 1024))] = (un
      +                          signed char)0xABCD;
  4448  0013AA  0ECD               	movlw	205
  4449  0013AC  CFE8 F4B2          	movff	wreg,_ProgrammingBuffer+6
  4450                           
  4451                           ;boot_18fxxjxx.c: 502: ProgrammingBuffer[(0x2006 & ~(uint32_t)(0x1000000 - 1024)) + 1] =
      +                           (unsigned char)(0xABCD >> 8);
  4452  0013B0  0EAB               	movlw	171
  4453  0013B2  CFE8 F4B3          	movff	wreg,_ProgrammingBuffer+7
  4454                           
  4455                           ;boot_18fxxjxx.c: 505: EraseFlashPage(0x2006 / 1024);
  4456  0013B6  0E00               	movlw	0
  4457  0013B8  6E4C               	movwf	EraseFlashPage@PageNumToErase+1,c
  4458  0013BA  0E08               	movlw	8
  4459  0013BC  6E4B               	movwf	EraseFlashPage@PageNumToErase,c
  4460  0013BE  EC3F  F00E         	call	_EraseFlashPage	;wreg free
  4461                           
  4462                           ;boot_18fxxjxx.c: 513: pROM = (far const uint8_t*)((0x2006 & (uint32_t)(0x1000000 - 1024
      +                          )) + 1024 - 1);
  4463  0013C2  0EFF               	movlw	255
  4464  0013C4  6E55               	movwf	SignFlash@pROM,c
  4465  0013C6  0E23               	movlw	35
  4466  0013C8  6E56               	movwf	SignFlash@pROM+1,c
  4467  0013CA  0E00               	movlw	0
  4468  0013CC  6E57               	movwf	SignFlash@pROM+2,c
  4469                           
  4470                           ;boot_18fxxjxx.c: 515: i = 1024 - 1;
  4471  0013CE  0E03               	movlw	3
  4472  0013D0  6E30               	movwf	SignFlash@i+1,c
  4473  0013D2  682F               	setf	SignFlash@i,c
  4474  0013D4                     
  4475                           ;boot_18fxxjxx.c: 517: {
  4476                           ;boot_18fxxjxx.c: 519: TBLPTRU = (uint32_t)pROM >> 16;
  4477  0013D4  5055               	movf	SignFlash@pROM,w,c
  4478  0013D6  6E51               	movwf	??_SignFlash& (0+255),c
  4479  0013D8  5056               	movf	SignFlash@pROM+1,w,c
  4480  0013DA  6E52               	movwf	(??_SignFlash+1)& (0+255),c
  4481  0013DC  5057               	movf	SignFlash@pROM+2,w,c
  4482  0013DE  6E53               	movwf	(??_SignFlash+2)& (0+255),c
  4483  0013E0  6A54               	clrf	(??_SignFlash+3)& (0+255),c
  4484  0013E2  0E11               	movlw	17
  4485  0013E4  D005               	goto	u2100
  4486  0013E6                     u2105:
  4487  0013E6  90D8               	bcf	status,0,c
  4488  0013E8  3254               	rrcf	??_SignFlash+3,f,c
  4489  0013EA  3253               	rrcf	??_SignFlash+2,f,c
  4490  0013EC  3252               	rrcf	??_SignFlash+1,f,c
  4491  0013EE  3251               	rrcf	??_SignFlash,f,c
  4492  0013F0                     u2100:
  4493  0013F0  2EE8               	decfsz	wreg,f,c
  4494  0013F2  D7F9               	goto	u2105
  4495  0013F4  5051               	movf	??_SignFlash,w,c
  4496  0013F6  6EF8               	movwf	tblptru,c	;volatile
  4497                           
  4498                           ;boot_18fxxjxx.c: 520: TBLPTRH = (uint16_t)pROM >> 8;
  4499  0013F8  5056               	movf	SignFlash@pROM+1,w,c
  4500  0013FA  6EF7               	movwf	tblptrh,c	;volatile
  4501                           
  4502                           ;boot_18fxxjxx.c: 521: TBLPTRL = (uint8_t)pROM;
  4503  0013FC  C055  FFF6         	movff	SignFlash@pROM,tblptrl	;volatile
  4504                           
  4505                           ;boot_18fxxjxx.c: 525: TABLAT = ProgrammingBuffer[i];
  4506  001400  0EAC               	movlw	low _ProgrammingBuffer
  4507  001402  242F               	addwf	SignFlash@i,w,c
  4508  001404  6ED9               	movwf	fsr2l,c
  4509  001406  0E04               	movlw	high _ProgrammingBuffer
  4510  001408  2030               	addwfc	SignFlash@i+1,w,c
  4511  00140A  6EDA               	movwf	fsr2h,c
  4512  00140C  50DF               	movf	indf2,w,c
  4513  00140E  6EF5               	movwf	tablat,c	;volatile
  4514  001410  000C               	tblwt		*	;# 
  4515                           
  4516                           ;boot_18fxxjxx.c: 536: if((i % 64) == 0)
  4517  001412  0E3F               	movlw	63
  4518  001414  142F               	andwf	SignFlash@i,w,c
  4519  001416  6E51               	movwf	??_SignFlash& (0+255),c
  4520  001418  0E00               	movlw	0
  4521  00141A  1430               	andwf	SignFlash@i+1,w,c
  4522  00141C  6E52               	movwf	(??_SignFlash+1)& (0+255),c
  4523  00141E  5051               	movf	??_SignFlash,w,c
  4524  001420  1052               	iorwf	??_SignFlash+1,w,c
  4525  001422  A4D8               	btfss	status,2,c
  4526  001424  D007               	goto	l119
  4527                           
  4528                           ;boot_18fxxjxx.c: 537: {
  4529                           ;boot_18fxxjxx.c: 539: ClearWatchdog();
  4530  001426  EC02  F000         	call	_ClearWatchdog	;wreg free
  4531                           
  4532                           ;boot_18fxxjxx.c: 540: EECON1 = 0x04;
  4533  00142A  0E04               	movlw	4
  4534  00142C  6EA6               	movwf	4006,c	;volsfr
  4535                           
  4536                           ;boot_18fxxjxx.c: 541: UnlockAndActivate(0xB5);
  4537  00142E  0EB5               	movlw	181
  4538  001430  EC2C  F00F         	call	_UnlockAndActivate
  4539  001434                     l119:
  4540                           
  4541                           ;boot_18fxxjxx.c: 542: }
  4542                           ;boot_18fxxjxx.c: 544: pROM--;
  4543  001434  0E01               	movlw	1
  4544  001436  5E55               	subwf	SignFlash@pROM,f,c
  4545  001438  0E00               	movlw	0
  4546  00143A  5A56               	subwfb	SignFlash@pROM+1,f,c
  4547  00143C  0E00               	movlw	0
  4548  00143E  5A57               	subwfb	SignFlash@pROM+2,f,c
  4549  001440  000A               	tblrd		*-	;# 
  4550                           
  4551                           ;boot_18fxxjxx.c: 554: if(i == 0)
  4552  001442  502F               	movf	SignFlash@i,w,c
  4553  001444  1030               	iorwf	SignFlash@i+1,w,c
  4554  001446  B4D8               	btfsc	status,2,c
  4555  001448  0012               	return	
  4556                           
  4557                           ;boot_18fxxjxx.c: 557: }
  4558                           ;boot_18fxxjxx.c: 558: i--;
  4559                           
  4560                           ;boot_18fxxjxx.c: 555: {
  4561                           ;boot_18fxxjxx.c: 556: break;
  4562  00144A  062F               	decf	SignFlash@i,f,c
  4563  00144C  A0D8               	btfss	status,0,c
  4564  00144E  0630               	decf	SignFlash@i+1,f,c
  4565  001450  D7C1               	goto	l118
  4566  001452                     __end_of_SignFlash:
  4567                           	opt stack 0
  4568                           stkptr	equ	0xFFC
  4569                           tblptru	equ	0xFF8
  4570                           tblptrh	equ	0xFF7
  4571                           tblptrl	equ	0xFF6
  4572                           tablat	equ	0xFF5
  4573                           prodh	equ	0xFF4
  4574                           prodl	equ	0xFF3
  4575                           intcon	equ	0xFF2
  4576                           wreg	equ	0xFE8
  4577                           indf1	equ	0xFE7
  4578                           fsr1h	equ	0xFE2
  4579                           fsr1l	equ	0xFE1
  4580                           indf2	equ	0xFDF
  4581                           postinc2	equ	0xFDE
  4582                           postdec2	equ	0xFDD
  4583                           plusw2	equ	0xFDB
  4584                           fsr2h	equ	0xFDA
  4585                           fsr2l	equ	0xFD9
  4586                           status	equ	0xFD8
  4587                           
  4588 ;; *************** function _EraseFlashPage *****************
  4589 ;; Defined at:
  4590 ;;		line 692 in file "../Source/c/boot_18fxxjxx.c"
  4591 ;; Parameters:    Size  Location     Type
  4592 ;;  PageNumToEra    2    1[COMRAM] unsigned int 
  4593 ;; Auto vars:     Size  Location     Type
  4594 ;;		None
  4595 ;; Return value:  Size  Location     Type
  4596 ;;                  1    wreg      void 
  4597 ;; Registers used:
  4598 ;;		wreg, status,2, status,0, cstack
  4599 ;; Tracked objects:
  4600 ;;		On entry : 0/0
  4601 ;;		On exit  : 0/0
  4602 ;;		Unchanged: 0/0
  4603 ;; Data sizes:     COMRAM   BANK0   BANK1   BANK2   BANK3  BANK4h   BANK5   BANK6   BANK7   BANK8   BANK9  BANK10  BANK1
      +1  BANK12  BANK13  BANK14
  4604 ;;      Params:         2       0       0       0       0       0       0       0       0       0       0       0       
      +0       0       0       0
  4605 ;;      Locals:         0       0       0       0       0       0       0       0       0       0       0       0       
      +0       0       0       0
  4606 ;;      Temps:          4       0       0       0       0       0       0       0       0       0       0       0       
      +0       0       0       0
  4607 ;;      Totals:         6       0       0       0       0       0       0       0       0       0       0       0       
      +0       0       0       0
  4608 ;;Total ram usage:        6 bytes
  4609 ;; Hardware stack levels used:    1
  4610 ;; Hardware stack levels required when called:    2
  4611 ;; This function calls:
  4612 ;;		_UnlockAndActivate
  4613 ;; This function is called by:
  4614 ;;		_ProcessIO
  4615 ;;		_SignFlash
  4616 ;; This function uses a non-reentrant model
  4617 ;;
  4618                           
  4619                           	psect	text23
  4620  001C7E                     __ptext23:
  4621                           	opt stack 0
  4622  001C7E                     _EraseFlashPage:
  4623                           	opt stack 25
  4624                           
  4625                           ;boot_18fxxjxx.c: 694: static uint32_t TablePointerValue;
  4626                           ;boot_18fxxjxx.c: 697: if(PageNumToErase < ((uint32_t)0x2000/1024))
  4627                           
  4628                           ;incstack = 0
  4629  001C7E  504C               	movf	EraseFlashPage@PageNumToErase+1,w,c
  4630  001C80  E108               	bnz	l2729
  4631  001C82  0E08               	movlw	8
  4632  001C84  5C4B               	subwf	EraseFlashPage@PageNumToErase,w,c
  4633  001C86  B0D8               	btfsc	status,0,c
  4634  001C88  D004               	goto	l151
  4635                           
  4636                           ;boot_18fxxjxx.c: 698: PageNumToErase = ((uint32_t)0x2000/1024);
  4637  001C8A  0E00               	movlw	0
  4638  001C8C  6E4C               	movwf	EraseFlashPage@PageNumToErase+1,c
  4639  001C8E  0E08               	movlw	8
  4640  001C90  6E4B               	movwf	EraseFlashPage@PageNumToErase,c
  4641  001C92                     l151:
  4642  001C92                     l2729:
  4643                           
  4644                           ;boot_18fxxjxx.c: 702: TablePointerValue = 1024 * (uint32_t)PageNumToErase;
  4645  001C92  504B               	movf	EraseFlashPage@PageNumToErase,w,c
  4646  001C94  6E4D               	movwf	??_EraseFlashPage& (0+255),c
  4647  001C96  504C               	movf	EraseFlashPage@PageNumToErase+1,w,c
  4648  001C98  6E4E               	movwf	(??_EraseFlashPage+1)& (0+255),c
  4649  001C9A  6A4F               	clrf	(??_EraseFlashPage+2)& (0+255),c
  4650  001C9C  6A50               	clrf	(??_EraseFlashPage+3)& (0+255),c
  4651  001C9E  0E0A               	movlw	10
  4652  001CA0                     u1725:
  4653  001CA0  90D8               	bcf	status,0,c
  4654  001CA2  364D               	rlcf	??_EraseFlashPage,f,c
  4655  001CA4  364E               	rlcf	??_EraseFlashPage+1,f,c
  4656  001CA6  364F               	rlcf	??_EraseFlashPage+2,f,c
  4657  001CA8  3650               	rlcf	??_EraseFlashPage+3,f,c
  4658  001CAA  2EE8               	decfsz	wreg,f,c
  4659  001CAC  D7F9               	goto	u1725
  4660  001CAE  C04D  F00D         	movff	??_EraseFlashPage,EraseFlashPage@TablePointerValue
  4661  001CB2  C04E  F00E         	movff	??_EraseFlashPage+1,EraseFlashPage@TablePointerValue+1
  4662  001CB6  C04F  F00F         	movff	??_EraseFlashPage+2,EraseFlashPage@TablePointerValue+2
  4663  001CBA  C050  F010         	movff	??_EraseFlashPage+3,EraseFlashPage@TablePointerValue+3
  4664                           
  4665                           ;boot_18fxxjxx.c: 703: TBLPTRU = TablePointerValue >> 16;
  4666  001CBE  C00F  FFF8         	movff	EraseFlashPage@TablePointerValue+2,tblptru	;volatile
  4667                           
  4668                           ;boot_18fxxjxx.c: 704: TBLPTRH = TablePointerValue >> 8;
  4669  001CC2  C00E  FFF7         	movff	EraseFlashPage@TablePointerValue+1,tblptrh	;volatile
  4670                           
  4671                           ;boot_18fxxjxx.c: 705: TBLPTRL = 0x00;
  4672  001CC6  0E00               	movlw	0
  4673  001CC8  6EF6               	movwf	tblptrl,c	;volatile
  4674                           
  4675                           ;boot_18fxxjxx.c: 711: EECON1 = 0b00010100;
  4676  001CCA  0E14               	movlw	20
  4677  001CCC  6EA6               	movwf	4006,c	;volsfr
  4678                           
  4679                           ;boot_18fxxjxx.c: 712: UnlockAndActivate(0xB5);
  4680  001CCE  0EB5               	movlw	181
  4681  001CD0  EC2C  F00F         	call	_UnlockAndActivate
  4682  001CD4  0012               	return		;funcret
  4683  001CD6                     __end_of_EraseFlashPage:
  4684                           	opt stack 0
  4685                           stkptr	equ	0xFFC
  4686                           tblptru	equ	0xFF8
  4687                           tblptrh	equ	0xFF7
  4688                           tblptrl	equ	0xFF6
  4689                           tablat	equ	0xFF5
  4690                           prodh	equ	0xFF4
  4691                           prodl	equ	0xFF3
  4692                           intcon	equ	0xFF2
  4693                           wreg	equ	0xFE8
  4694                           indf1	equ	0xFE7
  4695                           fsr1h	equ	0xFE2
  4696                           fsr1l	equ	0xFE1
  4697                           indf2	equ	0xFDF
  4698                           postinc2	equ	0xFDE
  4699                           postdec2	equ	0xFDD
  4700                           plusw2	equ	0xFDB
  4701                           fsr2h	equ	0xFDA
  4702                           fsr2l	equ	0xFD9
  4703                           status	equ	0xFD8
  4704                           
  4705 ;; *************** function _UnlockAndActivate *****************
  4706 ;; Defined at:
  4707 ;;		line 646 in file "../Source/c/boot_18fxxjxx.c"
  4708 ;; Parameters:    Size  Location     Type
  4709 ;;  UnlockKey       1    wreg     unsigned char 
  4710 ;; Auto vars:     Size  Location     Type
  4711 ;;  UnlockKey       1    0[COMRAM] unsigned char 
  4712 ;; Return value:  Size  Location     Type
  4713 ;;                  1    wreg      void 
  4714 ;; Registers used:
  4715 ;;		wreg, status,2, status,0, cstack
  4716 ;; Tracked objects:
  4717 ;;		On entry : 0/0
  4718 ;;		On exit  : 0/0
  4719 ;;		Unchanged: 0/0
  4720 ;; Data sizes:     COMRAM   BANK0   BANK1   BANK2   BANK3  BANK4h   BANK5   BANK6   BANK7   BANK8   BANK9  BANK10  BANK1
      +1  BANK12  BANK13  BANK14
  4721 ;;      Params:         0       0       0       0       0       0       0       0       0       0       0       0       
      +0       0       0       0
  4722 ;;      Locals:         1       0       0       0       0       0       0       0       0       0       0       0       
      +0       0       0       0
  4723 ;;      Temps:          0       0       0       0       0       0       0       0       0       0       0       0       
      +0       0       0       0
  4724 ;;      Totals:         1       0       0       0       0       0       0       0       0       0       0       0       
      +0       0       0       0
  4725 ;;Total ram usage:        1 bytes
  4726 ;; Hardware stack levels used:    1
  4727 ;; Hardware stack levels required when called:    1
  4728 ;; This function calls:
  4729 ;;		_LowVoltageCheck
  4730 ;; This function is called by:
  4731 ;;		_SignFlash
  4732 ;;		_WriteFlashSubBlock
  4733 ;;		_EraseFlashPage
  4734 ;; This function uses a non-reentrant model
  4735 ;;
  4736                           
  4737                           	psect	text24
  4738  001E58                     __ptext24:
  4739                           	opt stack 0
  4740  001E58                     _UnlockAndActivate:
  4741                           	opt stack 26
  4742                           
  4743                           ;incstack = 0
  4744                           ;UnlockAndActivate@UnlockKey stored from wreg
  4745  001E58  6E4A               	movwf	UnlockAndActivate@UnlockKey,c
  4746                           
  4747                           ;boot_18fxxjxx.c: 648: INTCONbits.GIE = 0;
  4748  001E5A  9EF2               	bcf	intcon,7,c	;volatile
  4749                           
  4750                           ;boot_18fxxjxx.c: 651: LowVoltageCheck();
  4751  001E5C  ECD7  F00E         	call	_LowVoltageCheck	;wreg free
  4752                           
  4753                           ;boot_18fxxjxx.c: 655: if(UnlockKey != 0xB5)
  4754  001E60  0EB5               	movlw	181
  4755  001E62  184A               	xorwf	UnlockAndActivate@UnlockKey,w,c
  4756  001E64  B4D8               	btfsc	status,2,c
  4757  001E66  D005               	goto	l139
  4758                           
  4759                           ;boot_18fxxjxx.c: 656: {
  4760                           ;boot_18fxxjxx.c: 664: OSCCON = 0x03;
  4761  001E68  0E03               	movlw	3
  4762  001E6A  6ED3               	movwf	4051,c	;volatile
  4763  001E6C                     l140:
  4764  001E6C  0003               	sleep		;# 
  4765  001E6E  D7FE               	goto	l140
  4766  001E70  00FF               	reset		;# 
  4767  001E72                     l139:
  4768                           
  4769                           ;boot_18fxxjxx.c: 670: }
  4770                           ;boot_18fxxjxx.c: 673: EECON2 = 0x55;
  4771  001E72  0E55               	movlw	85
  4772  001E74  6EA7               	movwf	4007,c	;volsfr
  4773                           
  4774                           ;boot_18fxxjxx.c: 674: EECON2 = 0xAA;
  4775  001E76  0EAA               	movlw	170
  4776  001E78  6EA7               	movwf	4007,c	;volsfr
  4777                           
  4778                           ;boot_18fxxjxx.c: 675: EECON1bits.WR = 1;
  4779  001E7A  82A6               	bsf	4006,1,c	;volsfr
  4780  001E7C  B2A6               	btfsc	4006,1,c	;volsfr
  4781  001E7E  D7FE               	goto	l144
  4782                           
  4783                           ;boot_18fxxjxx.c: 688: EECON1bits.WREN = 0;
  4784  001E80  94A6               	bcf	4006,2,c	;volsfr
  4785  001E82  0012               	return		;funcret
  4786  001E84                     __end_of_UnlockAndActivate:
  4787                           	opt stack 0
  4788                           stkptr	equ	0xFFC
  4789                           tblptru	equ	0xFF8
  4790                           tblptrh	equ	0xFF7
  4791                           tblptrl	equ	0xFF6
  4792                           tablat	equ	0xFF5
  4793                           prodh	equ	0xFF4
  4794                           prodl	equ	0xFF3
  4795                           intcon	equ	0xFF2
  4796                           wreg	equ	0xFE8
  4797                           indf1	equ	0xFE7
  4798                           fsr1h	equ	0xFE2
  4799                           fsr1l	equ	0xFE1
  4800                           indf2	equ	0xFDF
  4801                           postinc2	equ	0xFDE
  4802                           postdec2	equ	0xFDD
  4803                           plusw2	equ	0xFDB
  4804                           fsr2h	equ	0xFDA
  4805                           fsr2l	equ	0xFD9
  4806                           status	equ	0xFD8
  4807                           
  4808 ;; *************** function _LowVoltageCheck *****************
  4809 ;; Defined at:
  4810 ;;		line 702 in file "../Source/c/main.c"
  4811 ;; Parameters:    Size  Location     Type
  4812 ;;		None
  4813 ;; Auto vars:     Size  Location     Type
  4814 ;;		None
  4815 ;; Return value:  Size  Location     Type
  4816 ;;                  1    wreg      void 
  4817 ;; Registers used:
  4818 ;;		wreg, status,2, status,0
  4819 ;; Tracked objects:
  4820 ;;		On entry : 0/0
  4821 ;;		On exit  : 0/0
  4822 ;;		Unchanged: 0/0
  4823 ;; Data sizes:     COMRAM   BANK0   BANK1   BANK2   BANK3  BANK4h   BANK5   BANK6   BANK7   BANK8   BANK9  BANK10  BANK1
      +1  BANK12  BANK13  BANK14
  4824 ;;      Params:         0       0       0       0       0       0       0       0       0       0       0       0       
      +0       0       0       0
  4825 ;;      Locals:         0       0       0       0       0       0       0       0       0       0       0       0       
      +0       0       0       0
  4826 ;;      Temps:          0       0       0       0       0       0       0       0       0       0       0       0       
      +0       0       0       0
  4827 ;;      Totals:         0       0       0       0       0       0       0       0       0       0       0       0       
      +0       0       0       0
  4828 ;;Total ram usage:        0 bytes
  4829 ;; Hardware stack levels used:    1
  4830 ;; This function calls:
  4831 ;;		Nothing
  4832 ;; This function is called by:
  4833 ;;		_UnlockAndActivate
  4834 ;;		_BootMain
  4835 ;; This function uses a non-reentrant model
  4836 ;;
  4837                           
  4838                           	psect	text25
  4839  001DAE                     __ptext25:
  4840                           	opt stack 0
  4841  001DAE                     _LowVoltageCheck:
  4842                           	opt stack 26
  4843                           
  4844                           ;main.c: 708: if(WDTCONbits.LVDSTAT == 0)
  4845                           
  4846                           ;incstack = 0
  4847  001DAE  BCC0               	btfsc	4032,6,c	;volatile
  4848  001DB0  0012               	return	
  4849                           
  4850                           ;main.c: 709: {
  4851                           ;main.c: 713: OSCCON = 0x03;
  4852  001DB2  0E03               	movlw	3
  4853  001DB4  6ED3               	movwf	4051,c	;volatile
  4854                           
  4855                           ;main.c: 714: UCONbits.SUSPND = 0;
  4856  001DB6  9265               	bcf	3941,1,c	;volatile
  4857                           
  4858                           ;main.c: 715: UCONbits.USBEN = 0;
  4859  001DB8  9665               	bcf	3941,3,c	;volatile
  4860                           
  4861                           ;main.c: 716: INTCON = 0x00;
  4862  001DBA  0E00               	movlw	0
  4863  001DBC  6EF2               	movwf	intcon,c	;volatile
  4864                           
  4865                           ;main.c: 719: uint_delay_counter = 0x400;
  4866  001DBE  0E04               	movlw	4
  4867  001DC0  6E2E               	movwf	_uint_delay_counter+1,c
  4868  001DC2  0E00               	movlw	0
  4869  001DC4  6E2D               	movwf	_uint_delay_counter,c
  4870                           
  4871                           ;main.c: 720: while(uint_delay_counter)
  4872  001DC6  D00B               	goto	l235
  4873  001DC8                     l236:
  4874                           
  4875                           ;main.c: 721: {
  4876                           ;main.c: 722: if(WDTCONbits.LVDSTAT == 1)
  4877  001DC8  ACC0               	btfss	4032,6,c	;volatile
  4878  001DCA  D004               	goto	l237
  4879                           
  4880                           ;main.c: 723: {
  4881                           ;main.c: 724: uint_delay_counter--;
  4882  001DCC  062D               	decf	_uint_delay_counter,f,c
  4883  001DCE  A0D8               	btfss	status,0,c
  4884  001DD0  062E               	decf	_uint_delay_counter+1,f,c
  4885                           
  4886                           ;main.c: 725: }
  4887  001DD2  D004               	goto	l238
  4888  001DD4                     l237:
  4889                           
  4890                           ;main.c: 726: else
  4891                           ;main.c: 727: {
  4892                           ;main.c: 728: uint_delay_counter = 0x400;
  4893  001DD4  0E04               	movlw	4
  4894  001DD6  6E2E               	movwf	_uint_delay_counter+1,c
  4895  001DD8  0E00               	movlw	0
  4896  001DDA  6E2D               	movwf	_uint_delay_counter,c
  4897  001DDC                     l238:
  4898  001DDC  0004               	clrwdt		;# 
  4899  001DDE                     l235:
  4900  001DDE  502D               	movf	_uint_delay_counter,w,c
  4901  001DE0  102E               	iorwf	_uint_delay_counter+1,w,c
  4902  001DE2  A4D8               	btfss	status,2,c
  4903  001DE4  D7F1               	goto	l236
  4904  001DE6  00FF               	reset		;# 
  4905  001DE8  0012               	return	
  4906  001DEA                     __end_of_LowVoltageCheck:
  4907                           	opt stack 0
  4908                           stkptr	equ	0xFFC
  4909                           tblptru	equ	0xFF8
  4910                           tblptrh	equ	0xFF7
  4911                           tblptrl	equ	0xFF6
  4912                           tablat	equ	0xFF5
  4913                           prodh	equ	0xFF4
  4914                           prodl	equ	0xFF3
  4915                           intcon	equ	0xFF2
  4916                           wreg	equ	0xFE8
  4917                           indf1	equ	0xFE7
  4918                           fsr1h	equ	0xFE2
  4919                           fsr1l	equ	0xFE1
  4920                           indf2	equ	0xFDF
  4921                           postinc2	equ	0xFDE
  4922                           postdec2	equ	0xFDD
  4923                           plusw2	equ	0xFDB
  4924                           fsr2h	equ	0xFDA
  4925                           fsr2l	equ	0xFD9
  4926                           status	equ	0xFD8
  4927                           
  4928 ;; *************** function _ResetDeviceCleanly *****************
  4929 ;; Defined at:
  4930 ;;		line 572 in file "../Source/c/boot_18fxxjxx.c"
  4931 ;; Parameters:    Size  Location     Type
  4932 ;;		None
  4933 ;; Auto vars:     Size  Location     Type
  4934 ;;		None
  4935 ;; Return value:  Size  Location     Type
  4936 ;;                  1    wreg      void 
  4937 ;; Registers used:
  4938 ;;		wreg, status,2, status,0, cstack
  4939 ;; Tracked objects:
  4940 ;;		On entry : 0/0
  4941 ;;		On exit  : 0/0
  4942 ;;		Unchanged: 0/0
  4943 ;; Data sizes:     COMRAM   BANK0   BANK1   BANK2   BANK3  BANK4h   BANK5   BANK6   BANK7   BANK8   BANK9  BANK10  BANK1
      +1  BANK12  BANK13  BANK14
  4944 ;;      Params:         0       0       0       0       0       0       0       0       0       0       0       0       
      +0       0       0       0
  4945 ;;      Locals:         0       0       0       0       0       0       0       0       0       0       0       0       
      +0       0       0       0
  4946 ;;      Temps:          0       0       0       0       0       0       0       0       0       0       0       0       
      +0       0       0       0
  4947 ;;      Totals:         0       0       0       0       0       0       0       0       0       0       0       0       
      +0       0       0       0
  4948 ;;Total ram usage:        0 bytes
  4949 ;; Hardware stack levels used:    1
  4950 ;; Hardware stack levels required when called:    3
  4951 ;; This function calls:
  4952 ;;		_USBDisableWithLongDelay
  4953 ;; This function is called by:
  4954 ;;		_ProcessIO
  4955 ;; This function uses a non-reentrant model
  4956 ;;
  4957                           
  4958                           	psect	text26
  4959  00000C                     __ptext26:
  4960                           	opt stack 0
  4961  00000C                     _ResetDeviceCleanly:
  4962                           	opt stack 25
  4963                           
  4964                           ;boot_18fxxjxx.c: 574: USBDisableWithLongDelay();
  4965                           
  4966                           ;incstack = 0
  4967  00000C  ECAE  F00F         	call	_USBDisableWithLongDelay	;wreg free
  4968  000010  00FF               	reset		;# 
  4969                           
  4970                           ;boot_18fxxjxx.c: 576: __nop();
  4971  000012  F000               	nop	
  4972                           
  4973                           ;boot_18fxxjxx.c: 577: __nop();
  4974  000014  F000               	nop	
  4975  000016  0012               	return		;funcret
  4976  000018                     __end_of_ResetDeviceCleanly:
  4977                           	opt stack 0
  4978                           stkptr	equ	0xFFC
  4979                           tblptru	equ	0xFF8
  4980                           tblptrh	equ	0xFF7
  4981                           tblptrl	equ	0xFF6
  4982                           tablat	equ	0xFF5
  4983                           prodh	equ	0xFF4
  4984                           prodl	equ	0xFF3
  4985                           intcon	equ	0xFF2
  4986                           wreg	equ	0xFE8
  4987                           indf1	equ	0xFE7
  4988                           fsr1h	equ	0xFE2
  4989                           fsr1l	equ	0xFE1
  4990                           indf2	equ	0xFDF
  4991                           postinc2	equ	0xFDE
  4992                           postdec2	equ	0xFDD
  4993                           plusw2	equ	0xFDB
  4994                           fsr2h	equ	0xFDA
  4995                           fsr2l	equ	0xFD9
  4996                           status	equ	0xFD8
  4997                           
  4998 ;; *************** function _HIDTxReport *****************
  4999 ;; Defined at:
  5000 ;;		line 215 in file "../Source/c/usb_device_hid.c"
  5001 ;; Parameters:    Size  Location     Type
  5002 ;;  buffer          2    0[COMRAM] PTR unsigned char 
  5003 ;;		 -> PacketToPC(65), 
  5004 ;;  len             1    2[COMRAM] unsigned char 
  5005 ;; Auto vars:     Size  Location     Type
  5006 ;;  i               1    4[COMRAM] unsigned char 
  5007 ;; Return value:  Size  Location     Type
  5008 ;;                  1    wreg      void 
  5009 ;; Registers used:
  5010 ;;		wreg, fsr1l, fsr1h, fsr2l, fsr2h, status,2, status,0, prodl, prodh
  5011 ;; Tracked objects:
  5012 ;;		On entry : 0/0
  5013 ;;		On exit  : 0/0
  5014 ;;		Unchanged: 0/0
  5015 ;; Data sizes:     COMRAM   BANK0   BANK1   BANK2   BANK3  BANK4h   BANK5   BANK6   BANK7   BANK8   BANK9  BANK10  BANK1
      +1  BANK12  BANK13  BANK14
  5016 ;;      Params:         3       0       0       0       0       0       0       0       0       0       0       0       
      +0       0       0       0
  5017 ;;      Locals:         1       0       0       0       0       0       0       0       0       0       0       0       
      +0       0       0       0
  5018 ;;      Temps:          1       0       0       0       0       0       0       0       0       0       0       0       
      +0       0       0       0
  5019 ;;      Totals:         5       0       0       0       0       0       0       0       0       0       0       0       
      +0       0       0       0
  5020 ;;Total ram usage:        5 bytes
  5021 ;; Hardware stack levels used:    1
  5022 ;; This function calls:
  5023 ;;		Nothing
  5024 ;; This function is called by:
  5025 ;;		_ProcessIO
  5026 ;; This function uses a non-reentrant model
  5027 ;;
  5028                           
  5029                           	psect	text27
  5030  001B4C                     __ptext27:
  5031                           	opt stack 0
  5032  001B4C                     _HIDTxReport:
  5033                           	opt stack 28
  5034                           
  5035                           ;usb_device_hid.c: 217: uint8_t i;
  5036                           ;usb_device_hid.c: 223: if(len > 64)
  5037                           
  5038                           ;incstack = 0
  5039  001B4C  0E40               	movlw	64
  5040  001B4E  644C               	cpfsgt	HIDTxReport@len,c
  5041  001B50  D002               	goto	l675
  5042                           
  5043                           ;usb_device_hid.c: 224: len = 64;
  5044  001B52  0E40               	movlw	64
  5045  001B54  6E4C               	movwf	HIDTxReport@len,c
  5046  001B56                     l675:
  5047                           
  5048                           ;usb_device_hid.c: 229: for (i = 0; i < len; i++)
  5049  001B56  0E00               	movlw	0
  5050  001B58  6E4E               	movwf	HIDTxReport@i,c
  5051  001B5A  D013               	goto	l676
  5052  001B5C                     
  5053                           ;usb_device_hid.c: 230: hid_report_in[i] = buffer[i];
  5054  001B5C  504E               	movf	HIDTxReport@i,w,c
  5055  001B5E  0D01               	mullw	1
  5056  001B60  50F3               	movf	prodl,w,c
  5057  001B62  244A               	addwf	HIDTxReport@buffer,w,c
  5058  001B64  6ED9               	movwf	fsr2l,c
  5059  001B66  50F4               	movf	prodh,w,c
  5060  001B68  204B               	addwfc	HIDTxReport@buffer+1,w,c
  5061  001B6A  6EDA               	movwf	fsr2h,c
  5062  001B6C  504E               	movf	HIDTxReport@i,w,c
  5063  001B6E  0D01               	mullw	1
  5064  001B70  0E6C               	movlw	108
  5065  001B72  24F3               	addwf	prodl,w,c
  5066  001B74  6EE1               	movwf	fsr1l,c
  5067  001B76  0E04               	movlw	4
  5068  001B78  20F4               	addwfc	prodh,w,c
  5069  001B7A  6EE2               	movwf	fsr1h,c
  5070  001B7C  CFDF FFE7          	movff	indf2,indf1
  5071  001B80  2A4E               	incf	HIDTxReport@i,f,c
  5072  001B82                     l676:
  5073  001B82  504C               	movf	HIDTxReport@len,w,c
  5074  001B84  5C4E               	subwf	HIDTxReport@i,w,c
  5075  001B86  A0D8               	btfss	status,0,c
  5076  001B88  D7E9               	goto	l677
  5077                           
  5078                           ;usb_device_hid.c: 232: ep1Bi.Cnt = len;
  5079  001B8A  C04C  F411         	movff	HIDTxReport@len,1041	;volatile
  5080                           
  5081                           ;usb_device_hid.c: 233: { ep1Bi.Stat._byte &= 0x40; ep1Bi.Stat.DTS = !ep1Bi.Stat.DTS; ep
      +                          1Bi.Stat._byte |= 0x08; ep1Bi.Stat._byte |= 0x80; };
  5082  001B8E  0E40               	movlw	64
  5083  001B90  0104               	movlb	4	; () banked
  5084  001B92  1710               	andwf	16,f,b	;volatile
  5085  001B94  BD10               	btfsc	16,6,b	;volatile
  5086  001B96  D003               	goto	u1900
  5087  001B98  6A4D               	clrf	??_HIDTxReport& (0+255),c
  5088  001B9A  2A4D               	incf	??_HIDTxReport& (0+255),f,c
  5089  001B9C  D001               	goto	u1918
  5090  001B9E                     u1900:
  5091  001B9E  6A4D               	clrf	??_HIDTxReport& (0+255),c
  5092  001BA0                     u1918:
  5093  001BA0  3A4D               	swapf	??_HIDTxReport,f,c
  5094  001BA2  464D               	rlncf	??_HIDTxReport,f,c
  5095  001BA4  464D               	rlncf	??_HIDTxReport,f,c
  5096  001BA6  0104               	movlb	4	; () banked
  5097  001BA8  5110               	movf	16,w,b	;volatile
  5098  001BAA  184D               	xorwf	??_HIDTxReport,w,c
  5099  001BAC  0BBF               	andlw	-65
  5100  001BAE  184D               	xorwf	??_HIDTxReport,w,c
  5101  001BB0  6F10               	movwf	16,b	;volatile
  5102                           
  5103                           ; BSR set to: 4
  5104  001BB2  8710               	bsf	16,3,b	;volatile
  5105                           
  5106                           ; BSR set to: 4
  5107  001BB4  8F10               	bsf	16,7,b	;volatile
  5108                           
  5109                           ; BSR set to: 4
  5110  001BB6  0012               	return		;funcret
  5111  001BB8                     __end_of_HIDTxReport:
  5112                           	opt stack 0
  5113                           stkptr	equ	0xFFC
  5114                           tblptru	equ	0xFF8
  5115                           tblptrh	equ	0xFF7
  5116                           tblptrl	equ	0xFF6
  5117                           tablat	equ	0xFF5
  5118                           prodh	equ	0xFF4
  5119                           prodl	equ	0xFF3
  5120                           intcon	equ	0xFF2
  5121                           wreg	equ	0xFE8
  5122                           indf1	equ	0xFE7
  5123                           fsr1h	equ	0xFE2
  5124                           fsr1l	equ	0xFE1
  5125                           indf2	equ	0xFDF
  5126                           postinc2	equ	0xFDE
  5127                           postdec2	equ	0xFDD
  5128                           plusw2	equ	0xFDB
  5129                           fsr2h	equ	0xFDA
  5130                           fsr2l	equ	0xFD9
  5131                           status	equ	0xFD8
  5132                           
  5133 ;; *************** function _HIDRxReport *****************
  5134 ;; Defined at:
  5135 ;;		line 270 in file "../Source/c/usb_device_hid.c"
  5136 ;; Parameters:    Size  Location     Type
  5137 ;;  buffer          2    0[COMRAM] PTR unsigned char 
  5138 ;;		 -> PacketFromPC(65), 
  5139 ;;  len             1    2[COMRAM] unsigned char 
  5140 ;; Auto vars:     Size  Location     Type
  5141 ;;		None
  5142 ;; Return value:  Size  Location     Type
  5143 ;;                  1    wreg      unsigned char 
  5144 ;; Registers used:
  5145 ;;		wreg, fsr1l, fsr1h, fsr2l, fsr2h, status,2, status,0, prodl, prodh
  5146 ;; Tracked objects:
  5147 ;;		On entry : 0/0
  5148 ;;		On exit  : 0/0
  5149 ;;		Unchanged: 0/0
  5150 ;; Data sizes:     COMRAM   BANK0   BANK1   BANK2   BANK3  BANK4h   BANK5   BANK6   BANK7   BANK8   BANK9  BANK10  BANK1
      +1  BANK12  BANK13  BANK14
  5151 ;;      Params:         3       0       0       0       0       0       0       0       0       0       0       0       
      +0       0       0       0
  5152 ;;      Locals:         0       0       0       0       0       0       0       0       0       0       0       0       
      +0       0       0       0
  5153 ;;      Temps:          1       0       0       0       0       0       0       0       0       0       0       0       
      +0       0       0       0
  5154 ;;      Totals:         4       0       0       0       0       0       0       0       0       0       0       0       
      +0       0       0       0
  5155 ;;Total ram usage:        4 bytes
  5156 ;; Hardware stack levels used:    1
  5157 ;; This function calls:
  5158 ;;		Nothing
  5159 ;; This function is called by:
  5160 ;;		_ProcessIO
  5161 ;; This function uses a non-reentrant model
  5162 ;;
  5163                           
  5164                           	psect	text28
  5165  001AD6                     __ptext28:
  5166                           	opt stack 0
  5167  001AD6                     _HIDRxReport:
  5168                           	opt stack 28
  5169                           
  5170                           ;usb_device_hid.c: 272: hid_rpt_rx_len = 0;
  5171                           
  5172                           ; BSR set to: 4
  5173                           ;incstack = 0
  5174  001AD6  0E00               	movlw	0
  5175  001AD8  6E33               	movwf	_hid_rpt_rx_len,c
  5176                           
  5177                           ;usb_device_hid.c: 274: if(!ep1Bo.Stat.UOWN)
  5178  001ADA  0104               	movlb	4	; () banked
  5179  001ADC  BF0C               	btfsc	12,7,b	;volatile
  5180  001ADE  0012               	return	
  5181                           
  5182                           ; BSR set to: 4
  5183                           ;usb_device_hid.c: 275: {
  5184                           ;usb_device_hid.c: 280: if(len > ep1Bo.Cnt)
  5185  001AE0  504C               	movf	HIDRxReport@len,w,c
  5186  001AE2  5D0D               	subwf	13,w,b	;volatile
  5187  001AE4  A0D8               	btfss	status,0,c
  5188                           
  5189                           ; BSR set to: 4
  5190                           ;usb_device_hid.c: 281: len = ep1Bo.Cnt;
  5191  001AE6  C40D F04C          	movff	1037,HIDRxReport@len	;volatile
  5192                           
  5193                           ; BSR set to: 4
  5194                           ;usb_device_hid.c: 286: for(hid_rpt_rx_len = 0; hid_rpt_rx_len < len; hid_rpt_rx_len++)
  5195                           
  5196                           ; BSR set to: 4
  5197  001AEA  0E00               	movlw	0
  5198  001AEC  6E33               	movwf	_hid_rpt_rx_len,c
  5199  001AEE  D013               	goto	l684
  5200  001AF0                     
  5201                           ;usb_device_hid.c: 287: buffer[hid_rpt_rx_len] = hid_report_out[hid_rpt_rx_len];
  5202                           
  5203                           ; BSR set to: 4
  5204  001AF0  5033               	movf	_hid_rpt_rx_len,w,c
  5205  001AF2  0D01               	mullw	1
  5206  001AF4  0E2C               	movlw	44
  5207  001AF6  24F3               	addwf	prodl,w,c
  5208  001AF8  6ED9               	movwf	fsr2l,c
  5209  001AFA  0E04               	movlw	4
  5210  001AFC  20F4               	addwfc	prodh,w,c
  5211  001AFE  6EDA               	movwf	fsr2h,c
  5212  001B00  5033               	movf	_hid_rpt_rx_len,w,c
  5213  001B02  0D01               	mullw	1
  5214  001B04  50F3               	movf	prodl,w,c
  5215  001B06  244A               	addwf	HIDRxReport@buffer,w,c
  5216  001B08  6EE1               	movwf	fsr1l,c
  5217  001B0A  50F4               	movf	prodh,w,c
  5218  001B0C  204B               	addwfc	HIDRxReport@buffer+1,w,c
  5219  001B0E  6EE2               	movwf	fsr1h,c
  5220  001B10  CFDF FFE7          	movff	indf2,indf1
  5221  001B14  2A33               	incf	_hid_rpt_rx_len,f,c
  5222  001B16                     l684:
  5223  001B16  504C               	movf	HIDRxReport@len,w,c
  5224  001B18  5C33               	subwf	_hid_rpt_rx_len,w,c
  5225  001B1A  A0D8               	btfss	status,0,c
  5226  001B1C  D7E9               	goto	l685
  5227                           
  5228                           ;usb_device_hid.c: 292: ep1Bo.Cnt = sizeof(hid_report_out);
  5229  001B1E  0E40               	movlw	64
  5230  001B20  0104               	movlb	4	; () banked
  5231  001B22  6F0D               	movwf	13,b	;volatile
  5232                           
  5233                           ; BSR set to: 4
  5234                           ;usb_device_hid.c: 293: { ep1Bo.Stat._byte &= 0x40; ep1Bo.Stat.DTS = !ep1Bo.Stat.DTS; ep
      +                          1Bo.Stat._byte |= 0x08; ep1Bo.Stat._byte |= 0x80; };
  5235  001B24  0E40               	movlw	64
  5236  001B26  170C               	andwf	12,f,b	;volatile
  5237                           
  5238                           ; BSR set to: 4
  5239  001B28  BD0C               	btfsc	12,6,b	;volatile
  5240  001B2A  D003               	goto	u1860
  5241  001B2C  6A4D               	clrf	??_HIDRxReport& (0+255),c
  5242  001B2E  2A4D               	incf	??_HIDRxReport& (0+255),f,c
  5243  001B30  D001               	goto	u1878
  5244  001B32                     u1860:
  5245  001B32  6A4D               	clrf	??_HIDRxReport& (0+255),c
  5246  001B34                     u1878:
  5247  001B34  3A4D               	swapf	??_HIDRxReport,f,c
  5248  001B36  464D               	rlncf	??_HIDRxReport,f,c
  5249  001B38  464D               	rlncf	??_HIDRxReport,f,c
  5250  001B3A  0104               	movlb	4	; () banked
  5251  001B3C  510C               	movf	12,w,b	;volatile
  5252  001B3E  184D               	xorwf	??_HIDRxReport,w,c
  5253  001B40  0BBF               	andlw	-65
  5254  001B42  184D               	xorwf	??_HIDRxReport,w,c
  5255  001B44  6F0C               	movwf	12,b	;volatile
  5256                           
  5257                           ; BSR set to: 4
  5258  001B46  870C               	bsf	12,3,b	;volatile
  5259                           
  5260                           ; BSR set to: 4
  5261  001B48  8F0C               	bsf	12,7,b	;volatile
  5262                           
  5263                           ; BSR set to: 4
  5264  001B4A  0012               	return	
  5265  001B4C                     __end_of_HIDRxReport:
  5266                           	opt stack 0
  5267                           stkptr	equ	0xFFC
  5268                           tblptru	equ	0xFF8
  5269                           tblptrh	equ	0xFF7
  5270                           tblptrl	equ	0xFF6
  5271                           tablat	equ	0xFF5
  5272                           prodh	equ	0xFF4
  5273                           prodl	equ	0xFF3
  5274                           intcon	equ	0xFF2
  5275                           wreg	equ	0xFE8
  5276                           indf1	equ	0xFE7
  5277                           fsr1h	equ	0xFE2
  5278                           fsr1l	equ	0xFE1
  5279                           indf2	equ	0xFDF
  5280                           postinc2	equ	0xFDE
  5281                           postdec2	equ	0xFDD
  5282                           plusw2	equ	0xFDB
  5283                           fsr2h	equ	0xFDA
  5284                           fsr2l	equ	0xFD9
  5285                           status	equ	0xFD8
  5286                           
  5287 ;; *************** function _InitializeSystem *****************
  5288 ;; Defined at:
  5289 ;;		line 500 in file "../Source/c/main.c"
  5290 ;; Parameters:    Size  Location     Type
  5291 ;;		None
  5292 ;; Auto vars:     Size  Location     Type
  5293 ;;		None
  5294 ;; Return value:  Size  Location     Type
  5295 ;;                  1    wreg      void 
  5296 ;; Registers used:
  5297 ;;		wreg, fsr2l, fsr2h, status,2, status,0, cstack
  5298 ;; Tracked objects:
  5299 ;;		On entry : 0/0
  5300 ;;		On exit  : 0/0
  5301 ;;		Unchanged: 0/0
  5302 ;; Data sizes:     COMRAM   BANK0   BANK1   BANK2   BANK3  BANK4h   BANK5   BANK6   BANK7   BANK8   BANK9  BANK10  BANK1
      +1  BANK12  BANK13  BANK14
  5303 ;;      Params:         0       0       0       0       0       0       0       0       0       0       0       0       
      +0       0       0       0
  5304 ;;      Locals:         0       0       0       0       0       0       0       0       0       0       0       0       
      +0       0       0       0
  5305 ;;      Temps:          0       0       0       0       0       0       0       0       0       0       0       0       
      +0       0       0       0
  5306 ;;      Totals:         0       0       0       0       0       0       0       0       0       0       0       0       
      +0       0       0       0
  5307 ;;Total ram usage:        0 bytes
  5308 ;; Hardware stack levels used:    1
  5309 ;; Hardware stack levels required when called:    6
  5310 ;; This function calls:
  5311 ;;		_DelayRoutine
  5312 ;;		_USBDeviceInit
  5313 ;;		_UserInit
  5314 ;; This function is called by:
  5315 ;;		_BootMain
  5316 ;; This function uses a non-reentrant model
  5317 ;;
  5318                           
  5319                           	psect	text29
  5320  001EB0                     __ptext29:
  5321                           	opt stack 0
  5322  001EB0                     _InitializeSystem:
  5323                           	opt stack 23
  5324                           
  5325                           ;main.c: 520: OSCCON = 0x60;
  5326                           
  5327                           ; BSR set to: 4
  5328                           ;incstack = 0
  5329  001EB0  0E60               	movlw	96
  5330  001EB2  6ED3               	movwf	4051,c	;volatile
  5331                           
  5332                           ;main.c: 521: OSCTUNEbits.PLLEN = 1;
  5333  001EB4  8C9B               	bsf	3995,6,c	;volatile
  5334                           
  5335                           ;main.c: 523: DelayRoutine(0x300);
  5336  001EB6  0E03               	movlw	3
  5337  001EB8  6E4B               	movwf	DelayRoutine@DelayAmount+1,c
  5338  001EBA  0E00               	movlw	0
  5339  001EBC  6E4A               	movwf	DelayRoutine@DelayAmount,c
  5340  001EBE  ECB9  F00F         	call	_DelayRoutine	;wreg free
  5341                           
  5342                           ;main.c: 538: ANCON0 = 0x00;
  5343  001EC2  0E00               	movlw	0
  5344  001EC4  010F               	movlb	15	; () banked
  5345  001EC6  6F48               	movwf	72,b	;volatile
  5346                           
  5347                           ; BSR set to: 15
  5348                           ;main.c: 539: ANCON1 = 0x00;
  5349  001EC8  0E00               	movlw	0
  5350  001ECA  6F49               	movwf	73,b	;volatile
  5351                           
  5352                           ; BSR set to: 15
  5353                           ;main.c: 645: UserInit();
  5354  001ECC  EC80  F00F         	call	_UserInit	;wreg free
  5355                           
  5356                           ;main.c: 647: LATDbits.LATD4 = 0;
  5357  001ED0  988C               	bcf	3980,4,c	;volatile
  5358                           
  5359                           ;main.c: 648: TRISDbits.TRISD4 = 0;
  5360  001ED2  9895               	bcf	3989,4,c	;volatile
  5361                           
  5362                           ;main.c: 652: USBDeviceInit();
  5363  001ED4  ECD7  F00F         	call	_USBDeviceInit	;wreg free
  5364  001ED8  0012               	return		;funcret
  5365  001EDA                     __end_of_InitializeSystem:
  5366                           	opt stack 0
  5367                           stkptr	equ	0xFFC
  5368                           tblptru	equ	0xFF8
  5369                           tblptrh	equ	0xFF7
  5370                           tblptrl	equ	0xFF6
  5371                           tablat	equ	0xFF5
  5372                           prodh	equ	0xFF4
  5373                           prodl	equ	0xFF3
  5374                           intcon	equ	0xFF2
  5375                           wreg	equ	0xFE8
  5376                           indf1	equ	0xFE7
  5377                           fsr1h	equ	0xFE2
  5378                           fsr1l	equ	0xFE1
  5379                           indf2	equ	0xFDF
  5380                           postinc2	equ	0xFDE
  5381                           postdec2	equ	0xFDD
  5382                           plusw2	equ	0xFDB
  5383                           fsr2h	equ	0xFDA
  5384                           fsr2l	equ	0xFD9
  5385                           status	equ	0xFD8
  5386                           
  5387 ;; *************** function _USBDeviceInit *****************
  5388 ;; Defined at:
  5389 ;;		line 295 in file "../Source/c/usb_device.c"
  5390 ;; Parameters:    Size  Location     Type
  5391 ;;		None
  5392 ;; Auto vars:     Size  Location     Type
  5393 ;;		None
  5394 ;; Return value:  Size  Location     Type
  5395 ;;                  1    wreg      void 
  5396 ;; Registers used:
  5397 ;;		wreg, fsr2l, fsr2h, status,2, status,0, cstack
  5398 ;; Tracked objects:
  5399 ;;		On entry : 0/0
  5400 ;;		On exit  : 0/0
  5401 ;;		Unchanged: 0/0
  5402 ;; Data sizes:     COMRAM   BANK0   BANK1   BANK2   BANK3  BANK4h   BANK5   BANK6   BANK7   BANK8   BANK9  BANK10  BANK1
      +1  BANK12  BANK13  BANK14
  5403 ;;      Params:         0       0       0       0       0       0       0       0       0       0       0       0       
      +0       0       0       0
  5404 ;;      Locals:         0       0       0       0       0       0       0       0       0       0       0       0       
      +0       0       0       0
  5405 ;;      Temps:          0       0       0       0       0       0       0       0       0       0       0       0       
      +0       0       0       0
  5406 ;;      Totals:         0       0       0       0       0       0       0       0       0       0       0       0       
      +0       0       0       0
  5407 ;;Total ram usage:        0 bytes
  5408 ;; Hardware stack levels used:    1
  5409 ;; Hardware stack levels required when called:    5
  5410 ;; This function calls:
  5411 ;;		_USBCheckBusStatus
  5412 ;;		_USBDisableWithLongDelay
  5413 ;; This function is called by:
  5414 ;;		_InitializeSystem
  5415 ;; This function uses a non-reentrant model
  5416 ;;
  5417                           
  5418                           	psect	text30
  5419  001FAE                     __ptext30:
  5420                           	opt stack 0
  5421  001FAE                     _USBDeviceInit:
  5422                           	opt stack 23
  5423                           
  5424                           ;usb_device.c: 301: if(UCONbits.USBEN == 1)
  5425                           
  5426                           ;incstack = 0
  5427  001FAE  B665               	btfsc	3941,3,c	;volatile
  5428                           
  5429                           ;usb_device.c: 302: {
  5430                           ;usb_device.c: 306: USBDisableWithLongDelay();
  5431  001FB0  ECAE  F00F         	call	_USBDisableWithLongDelay	;wreg free
  5432                           
  5433                           ;usb_device.c: 307: }
  5434                           ;usb_device.c: 308: DeviceIsSoftDetached = 0;
  5435  001FB4  0E00               	movlw	0
  5436  001FB6  6E38               	movwf	_DeviceIsSoftDetached,c
  5437                           
  5438                           ;usb_device.c: 316: USBCheckBusStatus();
  5439  001FB8  ECDF  F00F         	call	_USBCheckBusStatus	;wreg free
  5440  001FBC  0012               	return		;funcret
  5441  001FBE                     __end_of_USBDeviceInit:
  5442                           	opt stack 0
  5443                           stkptr	equ	0xFFC
  5444                           tblptru	equ	0xFF8
  5445                           tblptrh	equ	0xFF7
  5446                           tblptrl	equ	0xFF6
  5447                           tablat	equ	0xFF5
  5448                           prodh	equ	0xFF4
  5449                           prodl	equ	0xFF3
  5450                           intcon	equ	0xFF2
  5451                           wreg	equ	0xFE8
  5452                           indf1	equ	0xFE7
  5453                           fsr1h	equ	0xFE2
  5454                           fsr1l	equ	0xFE1
  5455                           indf2	equ	0xFDF
  5456                           postinc2	equ	0xFDE
  5457                           postdec2	equ	0xFDD
  5458                           plusw2	equ	0xFDB
  5459                           fsr2h	equ	0xFDA
  5460                           fsr2l	equ	0xFD9
  5461                           status	equ	0xFD8
  5462                           
  5463 ;; *************** function _USBCheckBusStatus *****************
  5464 ;; Defined at:
  5465 ;;		line 375 in file "../Source/c/usb_device.c"
  5466 ;; Parameters:    Size  Location     Type
  5467 ;;		None
  5468 ;; Auto vars:     Size  Location     Type
  5469 ;;		None
  5470 ;; Return value:  Size  Location     Type
  5471 ;;                  1    wreg      void 
  5472 ;; Registers used:
  5473 ;;		wreg, fsr2l, fsr2h, status,2, status,0, cstack
  5474 ;; Tracked objects:
  5475 ;;		On entry : 0/0
  5476 ;;		On exit  : 0/0
  5477 ;;		Unchanged: 0/0
  5478 ;; Data sizes:     COMRAM   BANK0   BANK1   BANK2   BANK3  BANK4h   BANK5   BANK6   BANK7   BANK8   BANK9  BANK10  BANK1
      +1  BANK12  BANK13  BANK14
  5479 ;;      Params:         0       0       0       0       0       0       0       0       0       0       0       0       
      +0       0       0       0
  5480 ;;      Locals:         0       0       0       0       0       0       0       0       0       0       0       0       
      +0       0       0       0
  5481 ;;      Temps:          0       0       0       0       0       0       0       0       0       0       0       0       
      +0       0       0       0
  5482 ;;      Totals:         0       0       0       0       0       0       0       0       0       0       0       0       
      +0       0       0       0
  5483 ;;Total ram usage:        0 bytes
  5484 ;; Hardware stack levels used:    1
  5485 ;; Hardware stack levels required when called:    4
  5486 ;; This function calls:
  5487 ;;		_USBSoftAttach
  5488 ;; This function is called by:
  5489 ;;		_USBDeviceInit
  5490 ;;		_USBDeviceTasks
  5491 ;; This function uses a non-reentrant model
  5492 ;;
  5493                           
  5494                           	psect	text31
  5495  001FBE                     __ptext31:
  5496                           	opt stack 0
  5497  001FBE                     _USBCheckBusStatus:
  5498                           	opt stack 24
  5499                           
  5500                           ;usb_device.c: 380: if(DeviceIsSoftDetached == 1)
  5501                           
  5502                           ;incstack = 0
  5503  001FBE  0438               	decf	_DeviceIsSoftDetached,w,c
  5504  001FC0  B4D8               	btfsc	status,2,c
  5505  001FC2  0012               	return	
  5506                           
  5507                           ;usb_device.c: 383: }
  5508                           ;usb_device.c: 409: if(UCONbits.USBEN == 0)
  5509                           
  5510                           ;usb_device.c: 381: {
  5511                           ;usb_device.c: 382: return;
  5512  001FC4  B665               	btfsc	3941,3,c	;volatile
  5513  001FC6  0012               	return	
  5514                           
  5515                           ;usb_device.c: 410: USBSoftAttach();
  5516  001FC8  EC6D  F00F         	call	_USBSoftAttach	;wreg free
  5517  001FCC  0012               	return	
  5518  001FCE                     __end_of_USBCheckBusStatus:
  5519                           	opt stack 0
  5520                           stkptr	equ	0xFFC
  5521                           tblptru	equ	0xFF8
  5522                           tblptrh	equ	0xFF7
  5523                           tblptrl	equ	0xFF6
  5524                           tablat	equ	0xFF5
  5525                           prodh	equ	0xFF4
  5526                           prodl	equ	0xFF3
  5527                           intcon	equ	0xFF2
  5528                           wreg	equ	0xFE8
  5529                           indf1	equ	0xFE7
  5530                           fsr1h	equ	0xFE2
  5531                           fsr1l	equ	0xFE1
  5532                           indf2	equ	0xFDF
  5533                           postinc2	equ	0xFDE
  5534                           postdec2	equ	0xFDD
  5535                           plusw2	equ	0xFDB
  5536                           fsr2h	equ	0xFDA
  5537                           fsr2l	equ	0xFD9
  5538                           status	equ	0xFD8
  5539                           
  5540 ;; *************** function _USBSoftAttach *****************
  5541 ;; Defined at:
  5542 ;;		line 323 in file "../Source/c/usb_device.c"
  5543 ;; Parameters:    Size  Location     Type
  5544 ;;		None
  5545 ;; Auto vars:     Size  Location     Type
  5546 ;;		None
  5547 ;; Return value:  Size  Location     Type
  5548 ;;                  1    wreg      void 
  5549 ;; Registers used:
  5550 ;;		wreg, fsr2l, fsr2h, status,2, status,0, cstack
  5551 ;; Tracked objects:
  5552 ;;		On entry : 0/0
  5553 ;;		On exit  : 0/0
  5554 ;;		Unchanged: 0/0
  5555 ;; Data sizes:     COMRAM   BANK0   BANK1   BANK2   BANK3  BANK4h   BANK5   BANK6   BANK7   BANK8   BANK9  BANK10  BANK1
      +1  BANK12  BANK13  BANK14
  5556 ;;      Params:         0       0       0       0       0       0       0       0       0       0       0       0       
      +0       0       0       0
  5557 ;;      Locals:         0       0       0       0       0       0       0       0       0       0       0       0       
      +0       0       0       0
  5558 ;;      Temps:          0       0       0       0       0       0       0       0       0       0       0       0       
      +0       0       0       0
  5559 ;;      Totals:         0       0       0       0       0       0       0       0       0       0       0       0       
      +0       0       0       0
  5560 ;;Total ram usage:        0 bytes
  5561 ;; Hardware stack levels used:    1
  5562 ;; Hardware stack levels required when called:    3
  5563 ;; This function calls:
  5564 ;;		_USBDisableWithLongDelay
  5565 ;;		_USBProtocolResetHandler
  5566 ;; This function is called by:
  5567 ;;		_USBCheckBusStatus
  5568 ;; This function uses a non-reentrant model
  5569 ;;
  5570                           
  5571                           	psect	text32
  5572  001EDA                     __ptext32:
  5573                           	opt stack 0
  5574  001EDA                     _USBSoftAttach:
  5575                           	opt stack 24
  5576                           
  5577                           ;usb_device.c: 330: if(DeviceIsSoftDetached == 1)
  5578                           
  5579                           ;incstack = 0
  5580  001EDA  0438               	decf	_DeviceIsSoftDetached,w,c
  5581  001EDC  B4D8               	btfsc	status,2,c
  5582                           
  5583                           ;usb_device.c: 331: {
  5584                           ;usb_device.c: 332: USBDisableWithLongDelay();
  5585  001EDE  ECAE  F00F         	call	_USBDisableWithLongDelay	;wreg free
  5586                           
  5587                           ;usb_device.c: 333: }
  5588                           ;usb_device.c: 335: UCON = 0;
  5589  001EE2  0E00               	movlw	0
  5590  001EE4  6E65               	movwf	3941,c	;volatile
  5591                           
  5592                           ;usb_device.c: 336: UCFG = 0x10|0x00|0x04|0x01;
  5593  001EE6  0E15               	movlw	21
  5594  001EE8  010F               	movlb	15	; () banked
  5595  001EEA  6F39               	movwf	57,b	;volatile
  5596                           
  5597                           ; BSR set to: 15
  5598                           ;usb_device.c: 337: UIE = 0;
  5599  001EEC  0E00               	movlw	0
  5600  001EEE  6F36               	movwf	54,b	;volatile
  5601                           
  5602                           ; BSR set to: 15
  5603                           ;usb_device.c: 338: UCONbits.USBEN = 1;
  5604  001EF0  8665               	bsf	3941,3,c	;volatile
  5605                           
  5606                           ; BSR set to: 15
  5607                           ;usb_device.c: 340: USBProtocolResetHandler();
  5608  001EF2  ECDC  F00D         	call	_USBProtocolResetHandler	;wreg free
  5609                           
  5610                           ;usb_device.c: 341: usb_device_state = 1;
  5611  001EF6  0E01               	movlw	1
  5612  001EF8  6E45               	movwf	_usb_device_state,c
  5613                           
  5614                           ;usb_device.c: 342: DeviceIsSoftDetached = 0;
  5615  001EFA  0E00               	movlw	0
  5616  001EFC  6E38               	movwf	_DeviceIsSoftDetached,c
  5617  001EFE  0012               	return		;funcret
  5618  001F00                     __end_of_USBSoftAttach:
  5619                           	opt stack 0
  5620                           stkptr	equ	0xFFC
  5621                           tblptru	equ	0xFF8
  5622                           tblptrh	equ	0xFF7
  5623                           tblptrl	equ	0xFF6
  5624                           tablat	equ	0xFF5
  5625                           prodh	equ	0xFF4
  5626                           prodl	equ	0xFF3
  5627                           intcon	equ	0xFF2
  5628                           wreg	equ	0xFE8
  5629                           indf1	equ	0xFE7
  5630                           fsr1h	equ	0xFE2
  5631                           fsr1l	equ	0xFE1
  5632                           indf2	equ	0xFDF
  5633                           postinc2	equ	0xFDE
  5634                           postdec2	equ	0xFDD
  5635                           plusw2	equ	0xFDB
  5636                           fsr2h	equ	0xFDA
  5637                           fsr2l	equ	0xFD9
  5638                           status	equ	0xFD8
  5639                           
  5640 ;; *************** function _USBProtocolResetHandler *****************
  5641 ;; Defined at:
  5642 ;;		line 722 in file "../Source/c/usb_device.c"
  5643 ;; Parameters:    Size  Location     Type
  5644 ;;		None
  5645 ;; Auto vars:     Size  Location     Type
  5646 ;;		None
  5647 ;; Return value:  Size  Location     Type
  5648 ;;                  1    wreg      void 
  5649 ;; Registers used:
  5650 ;;		wreg, fsr2l, fsr2h, status,2, status,0, cstack
  5651 ;; Tracked objects:
  5652 ;;		On entry : 0/0
  5653 ;;		On exit  : 0/0
  5654 ;;		Unchanged: 0/0
  5655 ;; Data sizes:     COMRAM   BANK0   BANK1   BANK2   BANK3  BANK4h   BANK5   BANK6   BANK7   BANK8   BANK9  BANK10  BANK1
      +1  BANK12  BANK13  BANK14
  5656 ;;      Params:         0       0       0       0       0       0       0       0       0       0       0       0       
      +0       0       0       0
  5657 ;;      Locals:         0       0       0       0       0       0       0       0       0       0       0       0       
      +0       0       0       0
  5658 ;;      Temps:          0       0       0       0       0       0       0       0       0       0       0       0       
      +0       0       0       0
  5659 ;;      Totals:         0       0       0       0       0       0       0       0       0       0       0       0       
      +0       0       0       0
  5660 ;;Total ram usage:        0 bytes
  5661 ;; Hardware stack levels used:    1
  5662 ;; Hardware stack levels required when called:    2
  5663 ;; This function calls:
  5664 ;;		_ClearWatchdog
  5665 ;;		_LoadBDTandSetUOWN
  5666 ;;		_USBCBInitEP
  5667 ;; This function is called by:
  5668 ;;		_USBSoftAttach
  5669 ;;		_USBDeviceTasks
  5670 ;; This function uses a non-reentrant model
  5671 ;;
  5672                           
  5673                           	psect	text33
  5674  001BB8                     __ptext33:
  5675                           	opt stack 0
  5676  001BB8                     _USBProtocolResetHandler:
  5677                           	opt stack 26
  5678                           
  5679                           ;usb_device.c: 724: usb_device_state = 3;
  5680                           
  5681                           ;incstack = 0
  5682  001BB8  0E03               	movlw	3
  5683  001BBA  6E45               	movwf	_usb_device_state,c
  5684                           
  5685                           ;usb_device.c: 725: UEIE = 0;
  5686  001BBC  0E00               	movlw	0
  5687  001BBE  010F               	movlb	15	; () banked
  5688  001BC0  6F37               	movwf	55,b	;volatile
  5689                           
  5690                           ;usb_device.c: 726: UIR = 0;
  5691  001BC2  0E00               	movlw	0
  5692  001BC4  6E62               	movwf	3938,c	;volatile
  5693                           
  5694                           ;usb_device.c: 727: UIE = 0b01111011;
  5695  001BC6  0E7B               	movlw	123
  5696  001BC8  6F36               	movwf	54,b	;volatile
  5697                           
  5698                           ;usb_device.c: 728: UADDR = 0x00;
  5699  001BCA  0E00               	movlw	0
  5700  001BCC  6F38               	movwf	56,b	;volatile
  5701                           
  5702                           ;usb_device.c: 729: UEP1=0x00;UEP2=0x00;UEP3=0x00; UEP4=0x00;UEP5=0x00;UEP6=0x00;UEP7=0x
      +                          00;;
  5703  001BCE  0E00               	movlw	0
  5704  001BD0  6F27               	movwf	39,b	;volatile
  5705  001BD2  0E00               	movlw	0
  5706  001BD4  6F28               	movwf	40,b	;volatile
  5707  001BD6  0E00               	movlw	0
  5708  001BD8  6F29               	movwf	41,b	;volatile
  5709  001BDA  0E00               	movlw	0
  5710  001BDC  6F2A               	movwf	42,b	;volatile
  5711  001BDE  0E00               	movlw	0
  5712  001BE0  6F2B               	movwf	43,b	;volatile
  5713  001BE2  0E00               	movlw	0
  5714  001BE4  6F2C               	movwf	44,b	;volatile
  5715  001BE6  0E00               	movlw	0
  5716  001BE8  6F2D               	movwf	45,b	;volatile
  5717                           
  5718                           ;usb_device.c: 730: UEP0 = 0x06|0x10;
  5719  001BEA  0E16               	movlw	22
  5720  001BEC  6F26               	movwf	38,b	;volatile
  5721                           
  5722                           ; BSR set to: 15
  5723                           ;usb_device.c: 731: UCONbits.PPBRST = 1;
  5724  001BEE  8C65               	bsf	3941,6,c	;volatile
  5725                           
  5726                           ;usb_device.c: 732: while(UIRbits.TRNIF == 1)
  5727  001BF0  D003               	goto	l475
  5728  001BF2                     l476:
  5729                           
  5730                           ;usb_device.c: 733: {
  5731                           ;usb_device.c: 734: UIRbits.TRNIF = 0;
  5732  001BF2  9662               	bcf	3938,3,c	;volatile
  5733                           
  5734                           ;usb_device.c: 735: ClearWatchdog();
  5735  001BF4  EC02  F000         	call	_ClearWatchdog	;wreg free
  5736  001BF8                     l475:
  5737  001BF8  B662               	btfsc	3938,3,c	;volatile
  5738  001BFA  D7FB               	goto	l476
  5739                           
  5740                           ;usb_device.c: 736: }
  5741                           ;usb_device.c: 737: UCONbits.PPBRST = 0;
  5742  001BFC  9C65               	bcf	3941,6,c	;volatile
  5743                           
  5744                           ;usb_device.c: 738: UCONbits.PKTDIS = 0;
  5745  001BFE  9865               	bcf	3941,4,c	;volatile
  5746                           
  5747                           ;usb_device.c: 741: TempBDT.Stat._byte = 0x00|0x04;
  5748  001C00  0E04               	movlw	4
  5749  001C02  6E09               	movwf	_TempBDT,c
  5750                           
  5751                           ;usb_device.c: 742: LoadBDTandSetUOWN(0);
  5752  001C04  0E00               	movlw	0
  5753  001C06  EC6B  F00E         	call	_LoadBDTandSetUOWN
  5754                           
  5755                           ;usb_device.c: 743: EP0OutOddNeedsArmingNext = 1;
  5756  001C0A  0E01               	movlw	1
  5757  001C0C  6E3B               	movwf	_EP0OutOddNeedsArmingNext,c
  5758                           
  5759                           ;usb_device.c: 744: usb_stat._byte = 0x00;
  5760  001C0E  0E00               	movlw	0
  5761  001C10  6E3A               	movwf	_usb_stat,c
  5762                           
  5763                           ;usb_device.c: 745: usb_active_cfg = 0;
  5764  001C12  0E00               	movlw	0
  5765  001C14  6E49               	movwf	_usb_active_cfg,c
  5766                           
  5767                           ;usb_device.c: 746: USBCBInitEP(0);
  5768  001C16  0E00               	movlw	0
  5769  001C18  ECCE  F00F         	call	_USBCBInitEP
  5770  001C1C  0012               	return		;funcret
  5771  001C1E                     __end_of_USBProtocolResetHandler:
  5772                           	opt stack 0
  5773                           stkptr	equ	0xFFC
  5774                           tblptru	equ	0xFF8
  5775                           tblptrh	equ	0xFF7
  5776                           tblptrl	equ	0xFF6
  5777                           tablat	equ	0xFF5
  5778                           prodh	equ	0xFF4
  5779                           prodl	equ	0xFF3
  5780                           intcon	equ	0xFF2
  5781                           wreg	equ	0xFE8
  5782                           indf1	equ	0xFE7
  5783                           fsr1h	equ	0xFE2
  5784                           fsr1l	equ	0xFE1
  5785                           indf2	equ	0xFDF
  5786                           postinc2	equ	0xFDE
  5787                           postdec2	equ	0xFDD
  5788                           plusw2	equ	0xFDB
  5789                           fsr2h	equ	0xFDA
  5790                           fsr2l	equ	0xFD9
  5791                           status	equ	0xFD8
  5792                           
  5793 ;; *************** function _USBCBInitEP *****************
  5794 ;; Defined at:
  5795 ;;		line 938 in file "../Source/c/main.c"
  5796 ;; Parameters:    Size  Location     Type
  5797 ;;  Configuratio    1    wreg     unsigned char 
  5798 ;; Auto vars:     Size  Location     Type
  5799 ;;  Configuratio    1    0[COMRAM] unsigned char 
  5800 ;; Return value:  Size  Location     Type
  5801 ;;                  1    wreg      void 
  5802 ;; Registers used:
  5803 ;;		wreg, status,2, status,0, cstack
  5804 ;; Tracked objects:
  5805 ;;		On entry : 0/0
  5806 ;;		On exit  : 0/0
  5807 ;;		Unchanged: 0/0
  5808 ;; Data sizes:     COMRAM   BANK0   BANK1   BANK2   BANK3  BANK4h   BANK5   BANK6   BANK7   BANK8   BANK9  BANK10  BANK1
      +1  BANK12  BANK13  BANK14
  5809 ;;      Params:         0       0       0       0       0       0       0       0       0       0       0       0       
      +0       0       0       0
  5810 ;;      Locals:         1       0       0       0       0       0       0       0       0       0       0       0       
      +0       0       0       0
  5811 ;;      Temps:          0       0       0       0       0       0       0       0       0       0       0       0       
      +0       0       0       0
  5812 ;;      Totals:         1       0       0       0       0       0       0       0       0       0       0       0       
      +0       0       0       0
  5813 ;;Total ram usage:        1 bytes
  5814 ;; Hardware stack levels used:    1
  5815 ;; Hardware stack levels required when called:    1
  5816 ;; This function calls:
  5817 ;;		_HIDInitEP
  5818 ;;		_UserInit
  5819 ;; This function is called by:
  5820 ;;		_USBProtocolResetHandler
  5821 ;;		_USBStdSetCfgHandler
  5822 ;; This function uses a non-reentrant model
  5823 ;;
  5824                           
  5825                           	psect	text34
  5826  001F9C                     __ptext34:
  5827                           	opt stack 0
  5828  001F9C                     _USBCBInitEP:
  5829                           	opt stack 26
  5830                           
  5831                           ;incstack = 0
  5832                           ;USBCBInitEP@ConfigurationIndex stored from wreg
  5833  001F9C  6E4A               	movwf	USBCBInitEP@ConfigurationIndex,c
  5834                           
  5835                           ;main.c: 947: if(ConfigurationIndex == 1)
  5836  001F9E  044A               	decf	USBCBInitEP@ConfigurationIndex,w,c
  5837  001FA0  A4D8               	btfss	status,2,c
  5838  001FA2  0012               	return	
  5839                           
  5840                           ;main.c: 948: {
  5841                           ;main.c: 953: HIDInitEP();
  5842  001FA4  EC42  F00F         	call	_HIDInitEP	;wreg free
  5843                           
  5844                           ;main.c: 956: UserInit();
  5845  001FA8  EC80  F00F         	call	_UserInit	;wreg free
  5846  001FAC  0012               	return	
  5847  001FAE                     __end_of_USBCBInitEP:
  5848                           	opt stack 0
  5849                           stkptr	equ	0xFFC
  5850                           tblptru	equ	0xFF8
  5851                           tblptrh	equ	0xFF7
  5852                           tblptrl	equ	0xFF6
  5853                           tablat	equ	0xFF5
  5854                           prodh	equ	0xFF4
  5855                           prodl	equ	0xFF3
  5856                           intcon	equ	0xFF2
  5857                           wreg	equ	0xFE8
  5858                           indf1	equ	0xFE7
  5859                           fsr1h	equ	0xFE2
  5860                           fsr1l	equ	0xFE1
  5861                           indf2	equ	0xFDF
  5862                           postinc2	equ	0xFDE
  5863                           postdec2	equ	0xFDD
  5864                           plusw2	equ	0xFDB
  5865                           fsr2h	equ	0xFDA
  5866                           fsr2l	equ	0xFD9
  5867                           status	equ	0xFD8
  5868                           
  5869 ;; *************** function _UserInit *****************
  5870 ;; Defined at:
  5871 ;;		line 248 in file "../Source/c/boot_18fxxjxx.c"
  5872 ;; Parameters:    Size  Location     Type
  5873 ;;		None
  5874 ;; Auto vars:     Size  Location     Type
  5875 ;;		None
  5876 ;; Return value:  Size  Location     Type
  5877 ;;                  1    wreg      void 
  5878 ;; Registers used:
  5879 ;;		wreg, status,2
  5880 ;; Tracked objects:
  5881 ;;		On entry : 0/0
  5882 ;;		On exit  : 0/0
  5883 ;;		Unchanged: 0/0
  5884 ;; Data sizes:     COMRAM   BANK0   BANK1   BANK2   BANK3  BANK4h   BANK5   BANK6   BANK7   BANK8   BANK9  BANK10  BANK1
      +1  BANK12  BANK13  BANK14
  5885 ;;      Params:         0       0       0       0       0       0       0       0       0       0       0       0       
      +0       0       0       0
  5886 ;;      Locals:         0       0       0       0       0       0       0       0       0       0       0       0       
      +0       0       0       0
  5887 ;;      Temps:          0       0       0       0       0       0       0       0       0       0       0       0       
      +0       0       0       0
  5888 ;;      Totals:         0       0       0       0       0       0       0       0       0       0       0       0       
      +0       0       0       0
  5889 ;;Total ram usage:        0 bytes
  5890 ;; Hardware stack levels used:    1
  5891 ;; This function calls:
  5892 ;;		Nothing
  5893 ;; This function is called by:
  5894 ;;		_InitializeSystem
  5895 ;;		_USBCBInitEP
  5896 ;; This function uses a non-reentrant model
  5897 ;;
  5898                           
  5899                           	psect	text35
  5900  001F00                     __ptext35:
  5901                           	opt stack 0
  5902  001F00                     _UserInit:
  5903                           	opt stack 26
  5904                           
  5905                           ;boot_18fxxjxx.c: 251: MaxPageToErase = ((((uint32_t)0x00FFF8)/1024) - 1);
  5906                           
  5907                           ;incstack = 0
  5908  001F00  0E3E               	movlw	62
  5909  001F02  6E44               	movwf	_MaxPageToErase,c
  5910                           
  5911                           ;boot_18fxxjxx.c: 252: ProgramMemStopAddress = ((((((uint32_t)0x00FFF8)/1024) - 1) + 1) 
      +                          * 1024);
  5912  001F04  0E00               	movlw	0
  5913  001F06  6E19               	movwf	_ProgramMemStopAddress,c
  5914  001F08  0EFC               	movlw	252
  5915  001F0A  6E1A               	movwf	_ProgramMemStopAddress+1,c
  5916  001F0C  0E00               	movlw	0
  5917  001F0E  6E1B               	movwf	_ProgramMemStopAddress+2,c
  5918  001F10  0E00               	movlw	0
  5919  001F12  6E1C               	movwf	_ProgramMemStopAddress+3,c
  5920                           
  5921                           ;boot_18fxxjxx.c: 253: BootState = 0x00;
  5922  001F14  0E00               	movlw	0
  5923  001F16  6E43               	movwf	_BootState,c
  5924                           
  5925                           ;boot_18fxxjxx.c: 254: ProgrammedPointer = 0xFFFFFFFF;
  5926  001F18  6815               	setf	_ProgrammedPointer,c
  5927  001F1A  6816               	setf	_ProgrammedPointer+1,c
  5928  001F1C  6817               	setf	_ProgrammedPointer+2,c
  5929  001F1E  6818               	setf	_ProgrammedPointer+3,c
  5930                           
  5931                           ;boot_18fxxjxx.c: 255: BufferedDataIndex = 0;
  5932  001F20  0E00               	movlw	0
  5933  001F22  6E42               	movwf	_BufferedDataIndex,c
  5934  001F24  0012               	return		;funcret
  5935  001F26                     __end_of_UserInit:
  5936                           	opt stack 0
  5937                           stkptr	equ	0xFFC
  5938                           tblptru	equ	0xFF8
  5939                           tblptrh	equ	0xFF7
  5940                           tblptrl	equ	0xFF6
  5941                           tablat	equ	0xFF5
  5942                           prodh	equ	0xFF4
  5943                           prodl	equ	0xFF3
  5944                           intcon	equ	0xFF2
  5945                           wreg	equ	0xFE8
  5946                           indf1	equ	0xFE7
  5947                           fsr1h	equ	0xFE2
  5948                           fsr1l	equ	0xFE1
  5949                           indf2	equ	0xFDF
  5950                           postinc2	equ	0xFDE
  5951                           postdec2	equ	0xFDD
  5952                           plusw2	equ	0xFDB
  5953                           fsr2h	equ	0xFDA
  5954                           fsr2l	equ	0xFD9
  5955                           status	equ	0xFD8
  5956                           
  5957 ;; *************** function _HIDInitEP *****************
  5958 ;; Defined at:
  5959 ;;		line 157 in file "../Source/c/usb_device_hid.c"
  5960 ;; Parameters:    Size  Location     Type
  5961 ;;		None
  5962 ;; Auto vars:     Size  Location     Type
  5963 ;;		None
  5964 ;; Return value:  Size  Location     Type
  5965 ;;                  1    wreg      void 
  5966 ;; Registers used:
  5967 ;;		wreg, status,2, status,0
  5968 ;; Tracked objects:
  5969 ;;		On entry : 0/0
  5970 ;;		On exit  : 0/0
  5971 ;;		Unchanged: 0/0
  5972 ;; Data sizes:     COMRAM   BANK0   BANK1   BANK2   BANK3  BANK4h   BANK5   BANK6   BANK7   BANK8   BANK9  BANK10  BANK1
      +1  BANK12  BANK13  BANK14
  5973 ;;      Params:         0       0       0       0       0       0       0       0       0       0       0       0       
      +0       0       0       0
  5974 ;;      Locals:         0       0       0       0       0       0       0       0       0       0       0       0       
      +0       0       0       0
  5975 ;;      Temps:          0       0       0       0       0       0       0       0       0       0       0       0       
      +0       0       0       0
  5976 ;;      Totals:         0       0       0       0       0       0       0       0       0       0       0       0       
      +0       0       0       0
  5977 ;;Total ram usage:        0 bytes
  5978 ;; Hardware stack levels used:    1
  5979 ;; This function calls:
  5980 ;;		Nothing
  5981 ;; This function is called by:
  5982 ;;		_USBCBInitEP
  5983 ;; This function uses a non-reentrant model
  5984 ;;
  5985                           
  5986                           	psect	text36
  5987  001E84                     __ptext36:
  5988                           	opt stack 0
  5989  001E84                     _HIDInitEP:
  5990                           	opt stack 26
  5991                           
  5992                           ;usb_device_hid.c: 159: hid_rpt_rx_len =0;
  5993                           
  5994                           ;incstack = 0
  5995  001E84  0E00               	movlw	0
  5996  001E86  6E33               	movwf	_hid_rpt_rx_len,c
  5997                           
  5998                           ;usb_device_hid.c: 161: UEP1 = 0x0E|0x10;
  5999  001E88  0E1E               	movlw	30
  6000  001E8A  010F               	movlb	15	; () banked
  6001  001E8C  6F27               	movwf	39,b	;volatile
  6002                           
  6003                           ;usb_device_hid.c: 164: ep1Bo.Cnt = sizeof(hid_report_out);
  6004  001E8E  0E40               	movlw	64
  6005  001E90  0104               	movlb	4	; () banked
  6006  001E92  6F0D               	movwf	13,b	;volatile
  6007                           
  6008                           ; BSR set to: 4
  6009                           ;usb_device_hid.c: 165: ep1Bo.ADR = (uint8_t*)&hid_report_out;
  6010  001E94  0E2C               	movlw	44
  6011  001E96  6F0E               	movwf	14,b	;volatile
  6012  001E98  0E04               	movlw	4
  6013  001E9A  6F0F               	movwf	15,b	;volatile
  6014                           
  6015                           ; BSR set to: 4
  6016                           ;usb_device_hid.c: 166: ep1Bo.Stat._byte = 0x00|0x08;
  6017  001E9C  0E08               	movlw	8
  6018  001E9E  6F0C               	movwf	12,b	;volatile
  6019                           
  6020                           ; BSR set to: 4
  6021                           ;usb_device_hid.c: 167: ep1Bo.Stat._byte |= 0x80;
  6022  001EA0  8F0C               	bsf	12,7,b	;volatile
  6023                           
  6024                           ; BSR set to: 4
  6025                           ;usb_device_hid.c: 180: ep1Bi.ADR = (uint8_t*)&hid_report_in;
  6026  001EA2  0E6C               	movlw	108
  6027  001EA4  6F12               	movwf	18,b	;volatile
  6028  001EA6  0E04               	movlw	4
  6029  001EA8  6F13               	movwf	19,b	;volatile
  6030                           
  6031                           ; BSR set to: 4
  6032                           ;usb_device_hid.c: 181: ep1Bi.Stat._byte = 0x00|0x40;
  6033  001EAA  0E40               	movlw	64
  6034  001EAC  6F10               	movwf	16,b	;volatile
  6035                           
  6036                           ; BSR set to: 4
  6037  001EAE  0012               	return		;funcret
  6038  001EB0                     __end_of_HIDInitEP:
  6039                           	opt stack 0
  6040                           stkptr	equ	0xFFC
  6041                           tblptru	equ	0xFF8
  6042                           tblptrh	equ	0xFF7
  6043                           tblptrl	equ	0xFF6
  6044                           tablat	equ	0xFF5
  6045                           prodh	equ	0xFF4
  6046                           prodl	equ	0xFF3
  6047                           intcon	equ	0xFF2
  6048                           wreg	equ	0xFE8
  6049                           indf1	equ	0xFE7
  6050                           fsr1h	equ	0xFE2
  6051                           fsr1l	equ	0xFE1
  6052                           indf2	equ	0xFDF
  6053                           postinc2	equ	0xFDE
  6054                           postdec2	equ	0xFDD
  6055                           plusw2	equ	0xFDB
  6056                           fsr2h	equ	0xFDA
  6057                           fsr2l	equ	0xFD9
  6058                           status	equ	0xFD8
  6059                           
  6060 ;; *************** function _LoadBDTandSetUOWN *****************
  6061 ;; Defined at:
  6062 ;;		line 1561 in file "../Source/c/usb_device.c"
  6063 ;; Parameters:    Size  Location     Type
  6064 ;;  BDTIndexToLo    1    wreg     unsigned char 
  6065 ;; Auto vars:     Size  Location     Type
  6066 ;;  BDTIndexToLo    1    0[COMRAM] unsigned char 
  6067 ;; Return value:  Size  Location     Type
  6068 ;;                  1    wreg      void 
  6069 ;; Registers used:
  6070 ;;		wreg, fsr2l, fsr2h, status,2, status,0
  6071 ;; Tracked objects:
  6072 ;;		On entry : 0/0
  6073 ;;		On exit  : 0/0
  6074 ;;		Unchanged: 0/0
  6075 ;; Data sizes:     COMRAM   BANK0   BANK1   BANK2   BANK3  BANK4h   BANK5   BANK6   BANK7   BANK8   BANK9  BANK10  BANK1
      +1  BANK12  BANK13  BANK14
  6076 ;;      Params:         0       0       0       0       0       0       0       0       0       0       0       0       
      +0       0       0       0
  6077 ;;      Locals:         1       0       0       0       0       0       0       0       0       0       0       0       
      +0       0       0       0
  6078 ;;      Temps:          0       0       0       0       0       0       0       0       0       0       0       0       
      +0       0       0       0
  6079 ;;      Totals:         1       0       0       0       0       0       0       0       0       0       0       0       
      +0       0       0       0
  6080 ;;Total ram usage:        1 bytes
  6081 ;; Hardware stack levels used:    1
  6082 ;; This function calls:
  6083 ;;		Nothing
  6084 ;; This function is called by:
  6085 ;;		_USBProtocolResetHandler
  6086 ;;		_USBCtrlEPServiceComplete
  6087 ;; This function uses a non-reentrant model
  6088 ;;
  6089                           
  6090                           	psect	text37
  6091  001CD6                     __ptext37:
  6092                           	opt stack 0
  6093  001CD6                     _LoadBDTandSetUOWN:
  6094                           	opt stack 27
  6095                           
  6096                           ; BSR set to: 4
  6097                           ;incstack = 0
  6098                           ;LoadBDTandSetUOWN@BDTIndexToLoad stored from wreg
  6099  001CD6  6E4A               	movwf	LoadBDTandSetUOWN@BDTIndexToLoad,c
  6100                           
  6101                           ;usb_device.c: 1563: static volatile BDT* pBDTEntry;
  6102                           ;usb_device.c: 1569: TempBDT.Cnt = 8;
  6103  001CD8  0E08               	movlw	8
  6104  001CDA  6E0A               	movwf	_TempBDT+1,c
  6105                           
  6106                           ;usb_device.c: 1570: TempBDT.ADR = (uint8_t*)&EP0OutOddBuf[0];
  6107  001CDC  0E1C               	movlw	28
  6108  001CDE  6E0B               	movwf	_TempBDT+2,c
  6109  001CE0  0E04               	movlw	4
  6110  001CE2  6E0C               	movwf	_TempBDT+3,c
  6111                           
  6112                           ;usb_device.c: 1571: if(BDTIndexToLoad == 0)
  6113  001CE4  504A               	movf	LoadBDTandSetUOWN@BDTIndexToLoad,w,c
  6114  001CE6  A4D8               	btfss	status,2,c
  6115  001CE8  D006               	goto	l591
  6116                           
  6117                           ;usb_device.c: 1572: {
  6118                           ;usb_device.c: 1573: TempBDT.ADR = (uint8_t*)&EP0OutEvenBuf[0];
  6119  001CEA  0E14               	movlw	20
  6120  001CEC  6E0B               	movwf	_TempBDT+2,c
  6121  001CEE  0E04               	movlw	4
  6122  001CF0  6E0C               	movwf	_TempBDT+3,c
  6123                           
  6124                           ;usb_device.c: 1574: pBDTEntry = (volatile BDT*)0x400;
  6125  001CF2  0E00               	movlw	0
  6126  001CF4  D001               	goto	L10
  6127  001CF6                     l591:
  6128                           
  6129                           ;usb_device.c: 1576: else
  6130                           ;usb_device.c: 1577: {
  6131                           ;usb_device.c: 1578: pBDTEntry = (volatile BDT*)(0x400 + 4);
  6132  001CF6  0E04               	movlw	4
  6133  001CF8                     L10:
  6134  001CF8  6E23               	movwf	LoadBDTandSetUOWN@pBDTEntry,c
  6135  001CFA  0E04               	movlw	4
  6136  001CFC  6E24               	movwf	LoadBDTandSetUOWN@pBDTEntry+1,c
  6137                           
  6138                           ;usb_device.c: 1579: }
  6139                           ;usb_device.c: 1582: *pBDTEntry = TempBDT;
  6140  001CFE  C023  FFD9         	movff	LoadBDTandSetUOWN@pBDTEntry,fsr2l
  6141  001D02  C024  FFDA         	movff	LoadBDTandSetUOWN@pBDTEntry+1,fsr2h
  6142  001D06  C009  FFDE         	movff	_TempBDT,postinc2
  6143  001D0A  C00A  FFDE         	movff	_TempBDT+1,postinc2
  6144  001D0E  C00B  FFDE         	movff	_TempBDT+2,postinc2
  6145  001D12  C00C  FFDE         	movff	_TempBDT+3,postinc2
  6146                           
  6147                           ;usb_device.c: 1585: pBDTEntry->Stat.UOWN = 1;
  6148  001D16  C023  FFD9         	movff	LoadBDTandSetUOWN@pBDTEntry,fsr2l
  6149  001D1A  C024  FFDA         	movff	LoadBDTandSetUOWN@pBDTEntry+1,fsr2h
  6150  001D1E  8EDF               	bsf	indf2,7,c
  6151  001D20  0012               	return		;funcret
  6152  001D22                     __end_of_LoadBDTandSetUOWN:
  6153                           	opt stack 0
  6154                           stkptr	equ	0xFFC
  6155                           tblptru	equ	0xFF8
  6156                           tblptrh	equ	0xFF7
  6157                           tblptrl	equ	0xFF6
  6158                           tablat	equ	0xFF5
  6159                           prodh	equ	0xFF4
  6160                           prodl	equ	0xFF3
  6161                           intcon	equ	0xFF2
  6162                           wreg	equ	0xFE8
  6163                           indf1	equ	0xFE7
  6164                           fsr1h	equ	0xFE2
  6165                           fsr1l	equ	0xFE1
  6166                           indf2	equ	0xFDF
  6167                           postinc2	equ	0xFDE
  6168                           postdec2	equ	0xFDD
  6169                           plusw2	equ	0xFDB
  6170                           fsr2h	equ	0xFDA
  6171                           fsr2l	equ	0xFD9
  6172                           status	equ	0xFD8
  6173                           
  6174 ;; *************** function _USBDisableWithLongDelay *****************
  6175 ;; Defined at:
  6176 ;;		line 1593 in file "../Source/c/usb_device.c"
  6177 ;; Parameters:    Size  Location     Type
  6178 ;;		None
  6179 ;; Auto vars:     Size  Location     Type
  6180 ;;		None
  6181 ;; Return value:  Size  Location     Type
  6182 ;;                  1    wreg      void 
  6183 ;; Registers used:
  6184 ;;		wreg, status,2, status,0, cstack
  6185 ;; Tracked objects:
  6186 ;;		On entry : 0/0
  6187 ;;		On exit  : 0/0
  6188 ;;		Unchanged: 0/0
  6189 ;; Data sizes:     COMRAM   BANK0   BANK1   BANK2   BANK3  BANK4h   BANK5   BANK6   BANK7   BANK8   BANK9  BANK10  BANK1
      +1  BANK12  BANK13  BANK14
  6190 ;;      Params:         0       0       0       0       0       0       0       0       0       0       0       0       
      +0       0       0       0
  6191 ;;      Locals:         0       0       0       0       0       0       0       0       0       0       0       0       
      +0       0       0       0
  6192 ;;      Temps:          0       0       0       0       0       0       0       0       0       0       0       0       
      +0       0       0       0
  6193 ;;      Totals:         0       0       0       0       0       0       0       0       0       0       0       0       
      +0       0       0       0
  6194 ;;Total ram usage:        0 bytes
  6195 ;; Hardware stack levels used:    1
  6196 ;; Hardware stack levels required when called:    2
  6197 ;; This function calls:
  6198 ;;		_DelayRoutine
  6199 ;; This function is called by:
  6200 ;;		_ResetDeviceCleanly
  6201 ;;		_USBDeviceInit
  6202 ;;		_USBSoftAttach
  6203 ;; This function uses a non-reentrant model
  6204 ;;
  6205                           
  6206                           	psect	text38
  6207  001F5C                     __ptext38:
  6208                           	opt stack 0
  6209  001F5C                     _USBDisableWithLongDelay:
  6210                           	opt stack 24
  6211                           
  6212                           ;usb_device.c: 1595: UCONbits.SUSPND = 0;
  6213                           
  6214                           ;incstack = 0
  6215  001F5C  9265               	bcf	3941,1,c	;volatile
  6216                           
  6217                           ;usb_device.c: 1596: UCON = 0x00;
  6218  001F5E  0E00               	movlw	0
  6219  001F60  6E65               	movwf	3941,c	;volatile
  6220                           
  6221                           ;usb_device.c: 1597: DelayRoutine(0xFFFF);
  6222  001F62  0EFF               	movlw	255
  6223  001F64  6E4B               	movwf	DelayRoutine@DelayAmount+1,c
  6224  001F66  684A               	setf	DelayRoutine@DelayAmount,c
  6225  001F68  ECB9  F00F         	call	_DelayRoutine	;wreg free
  6226                           
  6227                           ;usb_device.c: 1598: usb_device_state = 0;
  6228  001F6C  0E00               	movlw	0
  6229  001F6E  6E45               	movwf	_usb_device_state,c
  6230  001F70  0012               	return		;funcret
  6231  001F72                     __end_of_USBDisableWithLongDelay:
  6232                           	opt stack 0
  6233                           stkptr	equ	0xFFC
  6234                           tblptru	equ	0xFF8
  6235                           tblptrh	equ	0xFF7
  6236                           tblptrl	equ	0xFF6
  6237                           tablat	equ	0xFF5
  6238                           prodh	equ	0xFF4
  6239                           prodl	equ	0xFF3
  6240                           intcon	equ	0xFF2
  6241                           wreg	equ	0xFE8
  6242                           indf1	equ	0xFE7
  6243                           fsr1h	equ	0xFE2
  6244                           fsr1l	equ	0xFE1
  6245                           indf2	equ	0xFDF
  6246                           postinc2	equ	0xFDE
  6247                           postdec2	equ	0xFDD
  6248                           plusw2	equ	0xFDB
  6249                           fsr2h	equ	0xFDA
  6250                           fsr2l	equ	0xFD9
  6251                           status	equ	0xFD8
  6252                           
  6253 ;; *************** function _DelayRoutine *****************
  6254 ;; Defined at:
  6255 ;;		line 1603 in file "../Source/c/usb_device.c"
  6256 ;; Parameters:    Size  Location     Type
  6257 ;;  DelayAmount     2    0[COMRAM] unsigned int 
  6258 ;; Auto vars:     Size  Location     Type
  6259 ;;		None
  6260 ;; Return value:  Size  Location     Type
  6261 ;;                  1    wreg      void 
  6262 ;; Registers used:
  6263 ;;		wreg, status,2, status,0, cstack
  6264 ;; Tracked objects:
  6265 ;;		On entry : 0/0
  6266 ;;		On exit  : 0/0
  6267 ;;		Unchanged: 0/0
  6268 ;; Data sizes:     COMRAM   BANK0   BANK1   BANK2   BANK3  BANK4h   BANK5   BANK6   BANK7   BANK8   BANK9  BANK10  BANK1
      +1  BANK12  BANK13  BANK14
  6269 ;;      Params:         2       0       0       0       0       0       0       0       0       0       0       0       
      +0       0       0       0
  6270 ;;      Locals:         0       0       0       0       0       0       0       0       0       0       0       0       
      +0       0       0       0
  6271 ;;      Temps:          0       0       0       0       0       0       0       0       0       0       0       0       
      +0       0       0       0
  6272 ;;      Totals:         2       0       0       0       0       0       0       0       0       0       0       0       
      +0       0       0       0
  6273 ;;Total ram usage:        2 bytes
  6274 ;; Hardware stack levels used:    1
  6275 ;; Hardware stack levels required when called:    1
  6276 ;; This function calls:
  6277 ;;		_ClearWatchdog
  6278 ;; This function is called by:
  6279 ;;		_InitializeSystem
  6280 ;;		_USBCBWakeFromSuspend
  6281 ;;		_USBDisableWithLongDelay
  6282 ;; This function uses a non-reentrant model
  6283 ;;
  6284                           
  6285                           	psect	text39
  6286  001F72                     __ptext39:
  6287                           	opt stack 0
  6288  001F72                     _DelayRoutine:
  6289                           	opt stack 25
  6290                           
  6291                           ;usb_device.c: 1605: while(DelayAmount)
  6292                           
  6293                           ;incstack = 0
  6294  001F72  D005               	goto	l599
  6295  001F74                     
  6296                           ;usb_device.c: 1606: {
  6297                           ;usb_device.c: 1607: ClearWatchdog();
  6298  001F74  EC02  F000         	call	_ClearWatchdog	;wreg free
  6299                           
  6300                           ;usb_device.c: 1608: DelayAmount--;
  6301  001F78  064A               	decf	DelayRoutine@DelayAmount,f,c
  6302  001F7A  A0D8               	btfss	status,0,c
  6303  001F7C  064B               	decf	DelayRoutine@DelayAmount+1,f,c
  6304  001F7E                     l599:
  6305  001F7E  504A               	movf	DelayRoutine@DelayAmount,w,c
  6306  001F80  104B               	iorwf	DelayRoutine@DelayAmount+1,w,c
  6307  001F82  B4D8               	btfsc	status,2,c
  6308  001F84  0012               	return	
  6309  001F86  D7F6               	goto	l600
  6310  001F88                     __end_of_DelayRoutine:
  6311                           	opt stack 0
  6312                           stkptr	equ	0xFFC
  6313                           tblptru	equ	0xFF8
  6314                           tblptrh	equ	0xFF7
  6315                           tblptrl	equ	0xFF6
  6316                           tablat	equ	0xFF5
  6317                           prodh	equ	0xFF4
  6318                           prodl	equ	0xFF3
  6319                           intcon	equ	0xFF2
  6320                           wreg	equ	0xFE8
  6321                           indf1	equ	0xFE7
  6322                           fsr1h	equ	0xFE2
  6323                           fsr1l	equ	0xFE1
  6324                           indf2	equ	0xFDF
  6325                           postinc2	equ	0xFDE
  6326                           postdec2	equ	0xFDD
  6327                           plusw2	equ	0xFDB
  6328                           fsr2h	equ	0xFDA
  6329                           fsr2l	equ	0xFD9
  6330                           status	equ	0xFD8
  6331                           
  6332 ;; *************** function _ClearWatchdog *****************
  6333 ;; Defined at:
  6334 ;;		line 1620 in file "../Source/c/usb_device.c"
  6335 ;; Parameters:    Size  Location     Type
  6336 ;;		None
  6337 ;; Auto vars:     Size  Location     Type
  6338 ;;		None
  6339 ;; Return value:  Size  Location     Type
  6340 ;;                  1    wreg      void 
  6341 ;; Registers used:
  6342 ;;		None
  6343 ;; Tracked objects:
  6344 ;;		On entry : 0/0
  6345 ;;		On exit  : 0/0
  6346 ;;		Unchanged: 0/0
  6347 ;; Data sizes:     COMRAM   BANK0   BANK1   BANK2   BANK3  BANK4h   BANK5   BANK6   BANK7   BANK8   BANK9  BANK10  BANK1
      +1  BANK12  BANK13  BANK14
  6348 ;;      Params:         0       0       0       0       0       0       0       0       0       0       0       0       
      +0       0       0       0
  6349 ;;      Locals:         0       0       0       0       0       0       0       0       0       0       0       0       
      +0       0       0       0
  6350 ;;      Temps:          0       0       0       0       0       0       0       0       0       0       0       0       
      +0       0       0       0
  6351 ;;      Totals:         0       0       0       0       0       0       0       0       0       0       0       0       
      +0       0       0       0
  6352 ;;Total ram usage:        0 bytes
  6353 ;; Hardware stack levels used:    1
  6354 ;; This function calls:
  6355 ;;		Nothing
  6356 ;; This function is called by:
  6357 ;;		_ProcessIO
  6358 ;;		_SignFlash
  6359 ;;		_USBProtocolResetHandler
  6360 ;;		_DelayRoutine
  6361 ;; This function uses a non-reentrant model
  6362 ;;
  6363                           
  6364                           	psect	text40
  6365  000004                     __ptext40:
  6366                           	opt stack 0
  6367  000004                     _ClearWatchdog:
  6368                           	opt stack 25
  6369                           
  6370                           ;incstack = 0
  6371  000004  0004               	clrwdt		;# 
  6372  000006  0012               	return		;funcret
  6373  000008                     __end_of_ClearWatchdog:
  6374                           	opt stack 0
  6375                           stkptr	equ	0xFFC
  6376                           tblptru	equ	0xFF8
  6377                           tblptrh	equ	0xFF7
  6378                           tblptrl	equ	0xFF6
  6379                           tablat	equ	0xFF5
  6380                           prodh	equ	0xFF4
  6381                           prodl	equ	0xFF3
  6382                           intcon	equ	0xFF2
  6383                           wreg	equ	0xFE8
  6384                           indf1	equ	0xFE7
  6385                           fsr1h	equ	0xFE2
  6386                           fsr1l	equ	0xFE1
  6387                           indf2	equ	0xFDF
  6388                           postinc2	equ	0xFDE
  6389                           postdec2	equ	0xFDD
  6390                           plusw2	equ	0xFDB
  6391                           fsr2h	equ	0xFDA
  6392                           fsr2l	equ	0xFD9
  6393                           status	equ	0xFD8
  6394                           
  6395 ;; *************** function _BlinkUSBStatus *****************
  6396 ;; Defined at:
  6397 ;;		line 678 in file "../Source/c/main.c"
  6398 ;; Parameters:    Size  Location     Type
  6399 ;;		None
  6400 ;; Auto vars:     Size  Location     Type
  6401 ;;		None
  6402 ;; Return value:  Size  Location     Type
  6403 ;;                  1    wreg      void 
  6404 ;; Registers used:
  6405 ;;		wreg, status,2, status,0
  6406 ;; Tracked objects:
  6407 ;;		On entry : 0/0
  6408 ;;		On exit  : 0/0
  6409 ;;		Unchanged: 0/0
  6410 ;; Data sizes:     COMRAM   BANK0   BANK1   BANK2   BANK3  BANK4h   BANK5   BANK6   BANK7   BANK8   BANK9  BANK10  BANK1
      +1  BANK12  BANK13  BANK14
  6411 ;;      Params:         0       0       0       0       0       0       0       0       0       0       0       0       
      +0       0       0       0
  6412 ;;      Locals:         0       0       0       0       0       0       0       0       0       0       0       0       
      +0       0       0       0
  6413 ;;      Temps:          1       0       0       0       0       0       0       0       0       0       0       0       
      +0       0       0       0
  6414 ;;      Totals:         1       0       0       0       0       0       0       0       0       0       0       0       
      +0       0       0       0
  6415 ;;Total ram usage:        1 bytes
  6416 ;; Hardware stack levels used:    1
  6417 ;; This function calls:
  6418 ;;		Nothing
  6419 ;; This function is called by:
  6420 ;;		_BootMain
  6421 ;; This function uses a non-reentrant model
  6422 ;;
  6423                           
  6424                           	psect	text41
  6425  001DEA                     __ptext41:
  6426                           	opt stack 0
  6427  001DEA                     _BlinkUSBStatus:
  6428                           	opt stack 29
  6429                           
  6430                           ;main.c: 681: static unsigned int led_count = 0;
  6431                           ;main.c: 683: led_count--;
  6432                           
  6433                           ;incstack = 0
  6434  001DEA  062B               	decf	BlinkUSBStatus@led_count,f,c
  6435  001DEC  A0D8               	btfss	status,0,c
  6436  001DEE  062C               	decf	BlinkUSBStatus@led_count+1,f,c
  6437                           
  6438                           ;main.c: 684: if(led_count == 0)
  6439  001DF0  502B               	movf	BlinkUSBStatus@led_count,w,c
  6440  001DF2  102C               	iorwf	BlinkUSBStatus@led_count+1,w,c
  6441  001DF4  A4D8               	btfss	status,2,c
  6442  001DF6  0012               	return	
  6443                           
  6444                           ;main.c: 685: {
  6445                           ;main.c: 686: led_count = 0x4E00;
  6446  001DF8  0E4E               	movlw	78
  6447  001DFA  6E2C               	movwf	BlinkUSBStatus@led_count+1,c
  6448  001DFC  0E00               	movlw	0
  6449  001DFE  6E2B               	movwf	BlinkUSBStatus@led_count,c
  6450                           
  6451                           ;main.c: 687: if(usb_device_state < 6)
  6452  001E00  0E06               	movlw	6
  6453  001E02  6045               	cpfslt	_usb_device_state,c
  6454  001E04  D002               	goto	l229
  6455                           
  6456                           ;main.c: 688: {
  6457                           ;main.c: 689: LATDbits.LATD4 = 1;
  6458  001E06  888C               	bsf	3980,4,c	;volatile
  6459                           
  6460                           ;main.c: 690: }
  6461  001E08  0012               	return	
  6462  001E0A                     l229:
  6463                           
  6464                           ;main.c: 691: else
  6465                           ;main.c: 692: {
  6466                           ;main.c: 693: LATDbits.LATD4 = !LATDbits.LATD4;
  6467  001E0A  B88C               	btfsc	3980,4,c	;volatile
  6468  001E0C  D003               	goto	u2320
  6469  001E0E  6A4A               	clrf	??_BlinkUSBStatus& (0+255),c
  6470  001E10  2A4A               	incf	??_BlinkUSBStatus& (0+255),f,c
  6471  001E12  D001               	goto	u2338
  6472  001E14                     u2320:
  6473  001E14  6A4A               	clrf	??_BlinkUSBStatus& (0+255),c
  6474  001E16                     u2338:
  6475  001E16  3A4A               	swapf	??_BlinkUSBStatus,f,c
  6476  001E18  508C               	movf	3980,w,c	;volatile
  6477  001E1A  184A               	xorwf	??_BlinkUSBStatus,w,c
  6478  001E1C  0BEF               	andlw	-17
  6479  001E1E  184A               	xorwf	??_BlinkUSBStatus,w,c
  6480  001E20  6E8C               	movwf	3980,c	;volatile
  6481  001E22  0012               	return	
  6482  001E24                     __end_of_BlinkUSBStatus:
  6483                           	opt stack 0
  6484                           stkptr	equ	0xFFC
  6485                           tblptru	equ	0xFF8
  6486                           tblptrh	equ	0xFF7
  6487                           tblptrl	equ	0xFF6
  6488                           tablat	equ	0xFF5
  6489                           prodh	equ	0xFF4
  6490                           prodl	equ	0xFF3
  6491                           intcon	equ	0xFF2
  6492                           wreg	equ	0xFE8
  6493                           indf1	equ	0xFE7
  6494                           fsr1h	equ	0xFE2
  6495                           fsr1l	equ	0xFE1
  6496                           indf2	equ	0xFDF
  6497                           postinc2	equ	0xFDE
  6498                           postdec2	equ	0xFDD
  6499                           plusw2	equ	0xFDB
  6500                           fsr2h	equ	0xFDA
  6501                           fsr2l	equ	0xFD9
  6502                           status	equ	0xFD8
  6503                           stkptr	equ	0xFFC
  6504                           tblptru	equ	0xFF8
  6505                           tblptrh	equ	0xFF7
  6506                           tblptrl	equ	0xFF6
  6507                           tablat	equ	0xFF5
  6508                           prodh	equ	0xFF4
  6509                           prodl	equ	0xFF3
  6510                           intcon	equ	0xFF2
  6511                           wreg	equ	0xFE8
  6512                           indf1	equ	0xFE7
  6513                           fsr1h	equ	0xFE2
  6514                           fsr1l	equ	0xFE1
  6515                           indf2	equ	0xFDF
  6516                           postinc2	equ	0xFDE
  6517                           postdec2	equ	0xFDD
  6518                           plusw2	equ	0xFDB
  6519                           fsr2h	equ	0xFDA
  6520                           fsr2l	equ	0xFD9
  6521                           status	equ	0xFD8
  6522                           
  6523                           	psect	rparam
  6524  0000                     stkptr	equ	0xFFC
  6525                           tblptru	equ	0xFF8
  6526                           tblptrh	equ	0xFF7
  6527                           tblptrl	equ	0xFF6
  6528                           tablat	equ	0xFF5
  6529                           prodh	equ	0xFF4
  6530                           prodl	equ	0xFF3
  6531                           intcon	equ	0xFF2
  6532                           wreg	equ	0xFE8
  6533                           indf1	equ	0xFE7
  6534                           fsr1h	equ	0xFE2
  6535                           fsr1l	equ	0xFE1
  6536                           indf2	equ	0xFDF
  6537                           postinc2	equ	0xFDE
  6538                           postdec2	equ	0xFDD
  6539                           plusw2	equ	0xFDB
  6540                           fsr2h	equ	0xFDA
  6541                           fsr2l	equ	0xFD9
  6542                           status	equ	0xFD8


Data Sizes:
    Strings     0
    Constant    188
    Data        0
    BSS         1227
    Persistent  0
    Stack       0

Auto Spaces:
    Space          Size  Autos    Used
    COMRAM           95     17      90
    BANK0           160      0     130
    BANK1           256      0       0
    BANK2           256      0       0
    BANK3           256      0       0
    BANK4h           84      0       0
    BANK5           256      0       0
    BANK6           256      0       0
    BANK7           256      0       0
    BANK8           256      0       0
    BANK9           256      0       0
    BANK10          256      0       0
    BANK11          256      0       0
    BANK12          256      0       0
    BANK13          256      0       0
    BANK14          192      0       0

Pointer List with Targets:

    ep0BoEven.ADR	PTR unsigned char  size(2) Largest target is 0
		 -> hid_report_in(BIGRAMh[64]), hid_report_out(BIGRAMh[64]), EP0OutEvenBuf(ABS[8]), EP0OutOddBuf(BIGRAMh[8]), 
		 -> CtrlTrfData(BIGRAMh[8]), 

    ep0BoOdd.ADR	PTR unsigned char  size(2) Largest target is 0
		 -> hid_report_in(BIGRAMh[64]), hid_report_out(BIGRAMh[64]), EP0OutEvenBuf(ABS[8]), EP0OutOddBuf(BIGRAMh[8]), 
		 -> CtrlTrfData(BIGRAMh[8]), 

    HIDRxReport@buffer	PTR unsigned char  size(2) Largest target is 65
		 -> PacketFromPC(BANK0[65]), 

    HIDTxReport@buffer	PTR unsigned char  size(2) Largest target is 65
		 -> PacketToPC(BANK0[65]), 

    ep1Bi.ADR	PTR unsigned char  size(2) Largest target is 64
		 -> hid_report_in(BIGRAMh[64]), hid_report_out(BIGRAMh[64]), EP0OutEvenBuf(ABS[8]), EP0OutOddBuf(BIGRAMh[8]), 
		 -> CtrlTrfData(BIGRAMh[8]), 

    ep1Bo.ADR	PTR unsigned char  size(2) Largest target is 64
		 -> hid_report_in(BIGRAMh[64]), hid_report_out(BIGRAMh[64]), EP0OutEvenBuf(ABS[8]), EP0OutOddBuf(BIGRAMh[8]), 
		 -> CtrlTrfData(BIGRAMh[8]), 

    LoadBDTandSetUOWN@pBDTEntry.ADR	PTR unsigned char  size(2) Largest target is 64
		 -> hid_report_in(BIGRAMh[64]), hid_report_out(BIGRAMh[64]), EP0OutEvenBuf(ABS[8]), EP0OutOddBuf(BIGRAMh[8]), 
		 -> CtrlTrfData(BIGRAMh[8]), 

    LoadBDTandSetUOWN@pBDTEntry	PTR volatile struct _BDT size(2) Largest target is 3775
		 -> NULL(NULL[0]), RAM(DATA[3775]), 

    TempBDT.ADR	PTR unsigned char  size(2) Largest target is 64
		 -> hid_report_in(BIGRAMh[64]), hid_report_out(BIGRAMh[64]), EP0OutEvenBuf(ABS[8]), EP0OutOddBuf(BIGRAMh[8]), 
		 -> CtrlTrfData(BIGRAMh[8]), 

    pDst.ADR	PTR unsigned char  size(2) Largest target is 64
		 -> hid_report_in(BIGRAMh[64]), hid_report_out(BIGRAMh[64]), EP0OutEvenBuf(ABS[8]), EP0OutOddBuf(BIGRAMh[8]), 
		 -> CtrlTrfData(BIGRAMh[8]), 

    ep0Bi.ADR	PTR unsigned char  size(2) Largest target is 64
		 -> hid_report_in(BIGRAMh[64]), hid_report_out(BIGRAMh[64]), EP0OutEvenBuf(ABS[8]), EP0OutOddBuf(BIGRAMh[8]), 
		 -> CtrlTrfData(BIGRAMh[8]), 

    USBDeviceTasks@pBDTEntry.ADR	PTR unsigned char  size(2) Largest target is 64
		 -> hid_report_in(BIGRAMh[64]), hid_report_out(BIGRAMh[64]), EP0OutEvenBuf(ABS[8]), EP0OutOddBuf(BIGRAMh[8]), 
		 -> CtrlTrfData(BIGRAMh[8]), 

    USBDeviceTasks@pBDTEntry	PTR volatile struct _BDT size(2) Largest target is 5
		 -> NULL(NULL[0]), ep0BoOdd(ABS[4]), ep0BoEven(BIGRAMll[4]), 

    ep0Bi...ADR	PTR unsigned char  size(2) Largest target is 64
		 -> hid_report_in(BIGRAMh[64]), hid_report_out(BIGRAMh[64]), EP0OutEvenBuf(ABS[8]), EP0OutOddBuf(BIGRAMh[8]), 
		 -> CtrlTrfData(BIGRAMh[8]), 

    ep0BoOdd...ADR	PTR unsigned char  size(2) Largest target is 64
		 -> hid_report_in(BIGRAMh[64]), hid_report_out(BIGRAMh[64]), EP0OutEvenBuf(ABS[8]), EP0OutOddBuf(BIGRAMh[8]), 
		 -> CtrlTrfData(BIGRAMh[8]), 

    ep0BoEven...ADR	PTR unsigned char  size(2) Largest target is 64
		 -> hid_report_in(BIGRAMh[64]), hid_report_out(BIGRAMh[64]), EP0OutEvenBuf(ABS[8]), EP0OutOddBuf(BIGRAMh[8]), 
		 -> CtrlTrfData(BIGRAMh[8]), 

    TempBDT...ADR	PTR unsigned char  size(2) Largest target is 64
		 -> hid_report_in(BIGRAMh[64]), hid_report_out(BIGRAMh[64]), EP0OutEvenBuf(ABS[8]), EP0OutOddBuf(BIGRAMh[8]), 
		 -> CtrlTrfData(BIGRAMh[8]), 

    pDst.wRom	PTR const unsigned short  size(2) Largest target is 0

    pDst.bRom	PTR const unsigned char  size(2) Largest target is 0

    pDst.wRam	PTR unsigned int  size(2) Largest target is 0

    pDst.bRam	PTR unsigned char  size(2) Largest target is 0

    S1117_POINTER$wRom	PTR const unsigned short  size(2) Largest target is 0

    pSrc.wRom	PTR const unsigned short  size(2) Largest target is 0

    S1117_POINTER$bRom	PTR const unsigned char  size(2) Largest target is 0

    pSrc.bRom	PTR const unsigned char  size(2) Largest target is 0

    S1117_POINTER$wRam	PTR unsigned int  size(2) Largest target is 0

    pSrc.wRam	PTR unsigned int  size(2) Largest target is 0

    S1117_POINTER$bRam	PTR unsigned char  size(2) Largest target is 0

    pSrc.bRam	PTR unsigned char  size(2) Largest target is 0

    USB_SD_Ptr	const PTR const unsigned char [3] size(2) Largest target is 52
		 -> sd002(CODE[38]), sd001(CODE[52]), sd000(CODE[4]), 

    SignFlash@pROM	PTR  unsigned char  size(3) Largest target is 65527
		 -> ROM(CODE[65527]), 

    ep1Bi...ADR	PTR unsigned char  size(2) Largest target is 64
		 -> hid_report_in(BIGRAMh[64]), hid_report_out(BIGRAMh[64]), EP0OutEvenBuf(ABS[8]), EP0OutOddBuf(BIGRAMh[8]), 
		 -> CtrlTrfData(BIGRAMh[8]), 

    S132$ADR	PTR unsigned char  size(2) Largest target is 64
		 -> hid_report_in(BIGRAMh[64]), hid_report_out(BIGRAMh[64]), EP0OutEvenBuf(ABS[8]), EP0OutOddBuf(BIGRAMh[8]), 
		 -> CtrlTrfData(BIGRAMh[8]), 

    ep1Bo...ADR	PTR unsigned char  size(2) Largest target is 64
		 -> hid_report_in(BIGRAMh[64]), hid_report_out(BIGRAMh[64]), EP0OutEvenBuf(ABS[8]), EP0OutOddBuf(BIGRAMh[8]), 
		 -> CtrlTrfData(BIGRAMh[8]), 


Critical Paths under _main in COMRAM

    _BootMain->_ProcessIO
    _ProcessIO->_SignFlash
    _WriteFlashSubBlock->_UnlockAndActivate
    _USBCBWakeFromSuspend->_DelayRoutine
    _USBCtrlEPServiceComplete->_LoadBDTandSetUOWN
    _USBCheckStdRequest->_USBStdFeatureReqHandler
    _USBCheckStdRequest->_USBStdGetStatusHandler
    _USBStdSetCfgHandler->_USBCBInitEP
    _SignFlash->_EraseFlashPage
    _EraseFlashPage->_UnlockAndActivate
    _InitializeSystem->_DelayRoutine
    _USBProtocolResetHandler->_LoadBDTandSetUOWN
    _USBProtocolResetHandler->_USBCBInitEP
    _USBDisableWithLongDelay->_DelayRoutine

Critical Paths under _main in BANK0

    None.

Critical Paths under _main in BANK1

    None.

Critical Paths under _main in BANK2

    None.

Critical Paths under _main in BANK3

    None.

Critical Paths under _main in BANK4h

    None.

Critical Paths under _main in BANK5

    None.

Critical Paths under _main in BANK6

    None.

Critical Paths under _main in BANK7

    None.

Critical Paths under _main in BANK8

    None.

Critical Paths under _main in BANK9

    None.

Critical Paths under _main in BANK10

    None.

Critical Paths under _main in BANK11

    None.

Critical Paths under _main in BANK12

    None.

Critical Paths under _main in BANK13

    None.

Critical Paths under _main in BANK14

    None.

Call Graph Tables:

 ---------------------------------------------------------------------------------
 (Depth) Function   	        Calls       Base Space   Used Autos Params    Refs
 ---------------------------------------------------------------------------------
 (0) _main                                                 1     1      0    4214
                                             16 COMRAM     1     1      0
                           _BootMain
 ---------------------------------------------------------------------------------
 (1) _BootMain                                             0     0      0    4190
                     _BlinkUSBStatus
                   _InitializeSystem
                    _LowVoltageCheck
                          _ProcessIO
                     _USBDeviceTasks
 ---------------------------------------------------------------------------------
 (2) _ProcessIO                                            2     2      0    2564
                                             14 COMRAM     2     2      0
                      _ClearWatchdog
                     _EraseFlashPage
                        _HIDRxReport
                        _HIDTxReport
                 _ResetDeviceCleanly
                          _SignFlash
                     _USBDeviceTasks
                 _WriteFlashSubBlock
 ---------------------------------------------------------------------------------
 (3) _WriteFlashSubBlock                                   6     6      0      22
                                              1 COMRAM     4     4      0
                  _UnlockAndActivate
 ---------------------------------------------------------------------------------
 (2) _USBDeviceTasks                                       2     2      0     712
                                              4 COMRAM     2     2      0
                  _USBCheckBusStatus
                _USBCtrlTrfInHandler
             _USBCtrlTrfSetupHandler
            _USBProtocolResetHandler
                         _USBSuspend
                 _USBWakeFromSuspend
 ---------------------------------------------------------------------------------
 (3) _USBWakeFromSuspend                                   0     0      0     290
               _USBCBWakeFromSuspend
 ---------------------------------------------------------------------------------
 (4) _USBCBWakeFromSuspend                                 0     0      0     290
                       _DelayRoutine
 ---------------------------------------------------------------------------------
 (3) _USBSuspend                                           0     0      0       0
                       _USBCBSuspend
 ---------------------------------------------------------------------------------
 (4) _USBCBSuspend                                         0     0      0       0
 ---------------------------------------------------------------------------------
 (3) _USBCtrlTrfSetupHandler                               0     0      0      44
                 _USBCBCheckOtherReq
                 _USBCheckStdRequest
           _USBCtrlEPServiceComplete
 ---------------------------------------------------------------------------------
 (4) _USBCtrlEPServiceComplete                             0     0      0      22
                  _LoadBDTandSetUOWN
                _USBCtrlTrfTxService
 ---------------------------------------------------------------------------------
 (4) _USBCheckStdRequest                                   0     0      0      22
            _USBStdFeatureReqHandler
                _USBStdGetDscHandler
             _USBStdGetStatusHandler
                _USBStdSetCfgHandler
 ---------------------------------------------------------------------------------
 (5) _USBStdSetCfgHandler                                  0     0      0      22
                        _USBCBInitEP
 ---------------------------------------------------------------------------------
 (5) _USBStdGetStatusHandler                               4     4      0       0
                                              0 COMRAM     4     4      0
 ---------------------------------------------------------------------------------
 (5) _USBStdGetDscHandler                                  1     1      0       0
                                              0 COMRAM     1     1      0
 ---------------------------------------------------------------------------------
 (5) _USBStdFeatureReqHandler                              4     4      0       0
                                              0 COMRAM     4     4      0
 ---------------------------------------------------------------------------------
 (4) _USBCBCheckOtherReq                                   0     0      0       0
                 _USBCheckHIDRequest
 ---------------------------------------------------------------------------------
 (5) _USBCheckHIDRequest                                   0     0      0       0
                _HIDGetReportHandler
                _HIDSetReportHandler
 ---------------------------------------------------------------------------------
 (6) _HIDSetReportHandler                                  0     0      0       0
 ---------------------------------------------------------------------------------
 (6) _HIDGetReportHandler                                  0     0      0       0
 ---------------------------------------------------------------------------------
 (3) _USBCtrlTrfInHandler                                  0     0      0       0
                _USBCtrlTrfTxService
 ---------------------------------------------------------------------------------
 (5) _USBCtrlTrfTxService                                  0     0      0       0
 ---------------------------------------------------------------------------------
 (3) _SignFlash                                            7     7      0     359
                                              7 COMRAM     7     7      0
                      _ClearWatchdog
                     _EraseFlashPage
                  _UnlockAndActivate
 ---------------------------------------------------------------------------------
 (4) _EraseFlashPage                                       6     4      2     245
                                              1 COMRAM     6     4      2
                  _UnlockAndActivate
 ---------------------------------------------------------------------------------
 (4) _UnlockAndActivate                                    1     1      0      22
                                              0 COMRAM     1     1      0
                    _LowVoltageCheck
 ---------------------------------------------------------------------------------
 (5) _LowVoltageCheck                                      0     0      0       0
 ---------------------------------------------------------------------------------
 (3) _ResetDeviceCleanly                                   0     0      0     290
            _USBDisableWithLongDelay
 ---------------------------------------------------------------------------------
 (3) _HIDTxReport                                          5     2      3     691
                                              0 COMRAM     5     2      3
 ---------------------------------------------------------------------------------
 (3) _HIDRxReport                                          4     1      3     245
                                              0 COMRAM     4     1      3
 ---------------------------------------------------------------------------------
 (2) _InitializeSystem                                     0     0      0     914
                       _DelayRoutine
                      _USBDeviceInit
                           _UserInit
 ---------------------------------------------------------------------------------
 (3) _USBDeviceInit                                        0     0      0     624
                  _USBCheckBusStatus
            _USBDisableWithLongDelay
 ---------------------------------------------------------------------------------
 (3) _USBCheckBusStatus                                    0     0      0     334
                      _USBSoftAttach
 ---------------------------------------------------------------------------------
 (4) _USBSoftAttach                                        0     0      0     334
            _USBDisableWithLongDelay
            _USBProtocolResetHandler
 ---------------------------------------------------------------------------------
 (3) _USBProtocolResetHandler                              0     0      0      44
                      _ClearWatchdog
                  _LoadBDTandSetUOWN
                        _USBCBInitEP
 ---------------------------------------------------------------------------------
 (4) _USBCBInitEP                                          1     1      0      22
                                              0 COMRAM     1     1      0
                          _HIDInitEP
                           _UserInit
 ---------------------------------------------------------------------------------
 (5) _UserInit                                             0     0      0       0
 ---------------------------------------------------------------------------------
 (5) _HIDInitEP                                            0     0      0       0
 ---------------------------------------------------------------------------------
 (4) _LoadBDTandSetUOWN                                    1     1      0      22
                                              0 COMRAM     1     1      0
 ---------------------------------------------------------------------------------
 (5) _USBDisableWithLongDelay                              0     0      0     290
                       _DelayRoutine
 ---------------------------------------------------------------------------------
 (5) _DelayRoutine                                         2     0      2     290
                                              0 COMRAM     2     0      2
                      _ClearWatchdog
 ---------------------------------------------------------------------------------
 (6) _ClearWatchdog                                        0     0      0       0
 ---------------------------------------------------------------------------------
 (2) _BlinkUSBStatus                                       1     1      0       0
                                              0 COMRAM     1     1      0
 ---------------------------------------------------------------------------------
 Estimated maximum stack depth 6
 ---------------------------------------------------------------------------------

 Call Graph Graphs:

 _main (ROOT)
   _BootMain
     _BlinkUSBStatus
     _InitializeSystem
       _DelayRoutine
         _ClearWatchdog
       _USBDeviceInit
         _USBCheckBusStatus
           _USBSoftAttach
             _USBDisableWithLongDelay
               _DelayRoutine
                 _ClearWatchdog
             _USBProtocolResetHandler
               _ClearWatchdog
               _LoadBDTandSetUOWN
               _USBCBInitEP
                 _HIDInitEP
                 _UserInit
         _USBDisableWithLongDelay
           _DelayRoutine
             _ClearWatchdog
       _UserInit
     _LowVoltageCheck
     _ProcessIO
       _ClearWatchdog
       _EraseFlashPage
         _UnlockAndActivate
           _LowVoltageCheck
       _HIDRxReport
       _HIDTxReport
       _ResetDeviceCleanly
         _USBDisableWithLongDelay
           _DelayRoutine
             _ClearWatchdog
       _SignFlash
         _ClearWatchdog
         _EraseFlashPage
           _UnlockAndActivate
             _LowVoltageCheck
         _UnlockAndActivate
           _LowVoltageCheck
       _USBDeviceTasks
         _USBCheckBusStatus
           _USBSoftAttach
             _USBDisableWithLongDelay
               _DelayRoutine
                 _ClearWatchdog
             _USBProtocolResetHandler
               _ClearWatchdog
               _LoadBDTandSetUOWN
               _USBCBInitEP
                 _HIDInitEP
                 _UserInit
         _USBCtrlTrfInHandler
           _USBCtrlTrfTxService
         _USBCtrlTrfSetupHandler
           _USBCBCheckOtherReq
             _USBCheckHIDRequest
               _HIDGetReportHandler
               _HIDSetReportHandler
           _USBCheckStdRequest
             _USBStdFeatureReqHandler
             _USBStdGetDscHandler
             _USBStdGetStatusHandler
             _USBStdSetCfgHandler
               _USBCBInitEP
                 _HIDInitEP
                 _UserInit
           _USBCtrlEPServiceComplete
             _LoadBDTandSetUOWN
             _USBCtrlTrfTxService
         _USBProtocolResetHandler
           _ClearWatchdog
           _LoadBDTandSetUOWN
           _USBCBInitEP
             _HIDInitEP
             _UserInit
         _USBSuspend
           _USBCBSuspend
         _USBWakeFromSuspend
           _USBCBWakeFromSuspend
             _DelayRoutine
               _ClearWatchdog
       _WriteFlashSubBlock
         _UnlockAndActivate
           _LowVoltageCheck
     _USBDeviceTasks
       _USBCheckBusStatus
         _USBSoftAttach
           _USBDisableWithLongDelay
             _DelayRoutine
               _ClearWatchdog
           _USBProtocolResetHandler
             _ClearWatchdog
             _LoadBDTandSetUOWN
             _USBCBInitEP
               _HIDInitEP
               _UserInit
       _USBCtrlTrfInHandler
         _USBCtrlTrfTxService
       _USBCtrlTrfSetupHandler
         _USBCBCheckOtherReq
           _USBCheckHIDRequest
             _HIDGetReportHandler
             _HIDSetReportHandler
         _USBCheckStdRequest
           _USBStdFeatureReqHandler
           _USBStdGetDscHandler
           _USBStdGetStatusHandler
           _USBStdSetCfgHandler
             _USBCBInitEP
               _HIDInitEP
               _UserInit
         _USBCtrlEPServiceComplete
           _LoadBDTandSetUOWN
           _USBCtrlTrfTxService
       _USBProtocolResetHandler
         _ClearWatchdog
         _LoadBDTandSetUOWN
         _USBCBInitEP
           _HIDInitEP
           _UserInit
       _USBSuspend
         _USBCBSuspend
       _USBWakeFromSuspend
         _USBCBWakeFromSuspend
           _DelayRoutine
             _ClearWatchdog

 Address spaces:
Name               Size   Autos  Total    Cost      Usage
BITCOMRAM           5F      0       0       0        0.0%
NULL                 0      0       0       0        0.0%
CODE                 0      0       0       0        0.0%
COMRAM              5F     11      5A       1       94.7%
STACK                0      0       0       2        0.0%
DATA                 0      0     4DC       3        0.0%
BITBANK0            A0      0       0       4        0.0%
BANK0               A0      0      82       5       81.3%
BITBANK1           100      0       0       6        0.0%
BANK1              100      0       0       7        0.0%
ABS                  0      0      DC       8        0.0%
BITBANK2           100      0       0       9        0.0%
BANK2              100      0       0      10        0.0%
BITBANK3           100      0       0      11        0.0%
BANK3              100      0       0      12        0.0%
BITBANK4h           54      0       0      13        0.0%
BANK4h              54      0       0      14        0.0%
BITBANK5           100      0       0      15        0.0%
BANK5              100      0       0      16        0.0%
BITBANK6           100      0       0      17        0.0%
BANK6              100      0       0      18        0.0%
BITBANK7           100      0       0      19        0.0%
BANK7              100      0       0      20        0.0%
BITBANK8           100      0       0      21        0.0%
BANK8              100      0       0      22        0.0%
BITBANK9           100      0       0      23        0.0%
BANK9              100      0       0      24        0.0%
BITBANK10          100      0       0      25        0.0%
BANK10             100      0       0      26        0.0%
BITBANK11          100      0       0      27        0.0%
BANK11             100      0       0      28        0.0%
BITBANK12          100      0       0      29        0.0%
BANK12             100      0       0      30        0.0%
BITBANK13          100      0       0      31        0.0%
BANK13             100      0       0      32        0.0%
BITBANK14           C0      0       0      33        0.0%
BANK14              C0      0       0      34        0.0%
BIGRAMh            A14      0     400      35       39.7%
BIGRAMll           3FF      0       0      36        0.0%
BITSFR_2             0      0       0     200        0.0%
SFR_2                0      0       0     200        0.0%
BITSFR_1             0      0       0     200        0.0%
SFR_1                0      0       0     200        0.0%
BITSFR               0      0       0     200        0.0%
SFR                  0      0       0     200        0.0%


Microchip Technology PIC18 Macro Assembler V1.45 build -152302408 
Symbol Table                                                                                   Mon Dec 10 10:17:30 2018

            __end_of_ClearWatchdog 0008    __end_of_USBDisableWithLongDelay 1F72  
                     _usb_alt_intf 0048                         _USB_SD_Ptr 0F01  
                     ?_HIDRxReport 004A                 ?_LoadBDTandSetUOWN 004A  
                   _BlinkUSBStatus 1DEA                       ?_HIDTxReport 004A  
                               l80 1002                                 l90 10CC  
                               l83 1322                                 l91 10EE  
                               l92 10D6                                 l84 101E  
                               l94 110E                                 l95 1130  
                               l87 109E                                 l88 10B2  
                               l97 11B0                                 l98 1156  
                    _USBDeviceInit 1FAE                 _USBCheckHIDRequest 1452  
                     __CFG_CP0$OFF 000000                                l101 11CA  
                              l110 1318                                l102 11DC  
                              l111 131C                                l103 124A  
                              l104 120C                                l107 1278  
                              l211 1E48                                l140 1E6C  
                              l116 1374                                l108 1282  
                              l133 1A32                                l213 1E4C  
                              l118 13D4                                l134 19AC  
                              l151 1C92                                l119 1434  
                              l144 1E7C                                l217 003C  
                              l235 1DDE                                l139 1E72  
                              l236 1DC8                                l229 1E0A  
                              l237 1DD4                                l501 17B4  
                              l238 1DDC                                l510 1814  
      __end_of_USBStdGetDscHandler 1AD6                                l503 17BE  
                              l600 1F74                                l520 189C  
                              l505 180C                                l249 1F4C  
                              l506 17D8                                l522 18D6  
                              l531 1754                                l523 18E6  
                              l515 1880                                l451 15F8  
                              l540 171E                                l532 16E8  
                              l516 1874                                l452 1582  
                              l509 1848                                l541 173A  
                              l461 160A                                l550 1AD2  
                              l534 16F2                                l470 1F94  
                              l551 1A58                                l535 16F8  
                              l519 18C2                                l455 15AC  
                              l447 155A                                l536 16FE  
                              l448 1566                                l553 1A74  
                              l561 1C78                                l537 1712  
                              l481 1D82                                l490 1D5A  
                              l650 14B2                                l570 1990  
                              l538 1718                                l482 1D8E  
                              l475 1BF8                                l651 1480  
                              l571 191E                                l459 1608  
                              l476 1BF2                                l492 1D64  
                              l660 14CE                                l652 1492  
                              l580 1630                                l548 1ABE  
                              l572 1924                                l661 14E2  
                              l549 1A48                                l469 1F96  
                              l662 14EC                                l582 16AE  
                              l566 197A                                l591 1CF6  
                              l487 1D3A                                l663 1500  
                              l647 14B4                                l567 1912  
                              l559 1C46                                l488 1D3E  
                              l656 150A                                l648 14A2  
                              l584 16C0                                l657 14C2  
                              l649 146C                                l675 1B56  
                              l659 14C8                                l579 162E  
                              l684 1B16                                l676 1B82  
                              l685 1AF0                                l677 1B5C  
                              l599 1F7E                                _UIE 000F36  
                              _UIR 000F62                ??_LoadBDTandSetUOWN 004A  
                       _USBSuspend 1F26    EraseFlashPage@TablePointerValue 000D  
             USBStdSetCfgHandler@i 0034                                prod 000FF3  
                              wreg 000FE8                     _USBDeviceTasks 1532  
              ?_USBCheckHIDRequest 004A                       __CFG_IESO$ON 000000  
           ??_USBCBWakeFromSuspend 004C                               l3081 1130  
                             l2515 1C5C                               l2449 17BE  
                             l3099 11C4                               l2903 15A4  
                             l2729 1C92                               l2883 155E  
                             l2967 13A2              ??_HIDSetReportHandler 004A  
                             u2100 13F0                               u2040 15F2  
                             u2105 13E6                               u1410 1AB4  
                             u1350 1800                               u2320 1E14  
                             u1417 1AAA                               u1370 183C  
                             u1610 1F56                               u1460 194C  
                             u2260 11C4                               u2180 1000  
                             u1357 17F6                               u1550 1672  
                             u2190 101C                               u1377 1832  
                             u2338 1E16                               u1900 1B9E  
                             u1468 194E                               u1725 1CA0  
                             u1558 1674                               u1860 1B32  
                             u1918 1BA0                               u1878 1B34  
            ??_USBCtrlTrfTxService 004A                               _UCFG 000F39  
                             _UEP0 000F26                               _UEP1 000F27  
                             _UEP2 000F28                               _UEP3 000F29  
                             _UEP4 000F2A                               _UEP5 000F2B  
                             _UEP6 000F2C                               _UEIE 000F37  
                             _UEP7 000F2D                               _UCON 000F65  
               __size_of_HIDInitEP 002C                      __CFG_FCMEN$ON 000000  
                             _pDst 001D                               _pSrc 0020  
                             _main 1E24             __size_of_USBSoftAttach 0026  
                             fsr1h 000FE2                               fsr2h 000FDA  
                             indf1 000FE7                               indf2 000FDF  
                             fsr1l 000FE1                               fsr2l 000FD9  
                    __CFG_T1DIG$ON 000000                               prodh 000FF4  
                             prodl 000FF3          __end_of_LoadBDTandSetUOWN 1D22  
                             start 0000            BlinkUSBStatus@led_count 002B  
               _USBCBCheckOtherReq 1FE6               ??_USBCheckHIDRequest 004A  
       __end_of_USBCheckStdRequest 1796                       ___param_bank 000000  
        ??_USBStdFeatureReqHandler 004A             __end_of_BlinkUSBStatus 1E24  
         ??_USBStdGetStatusHandler 004A                     ?_USBDeviceInit 004A  
              ?_USBCBCheckOtherReq 004A                      __CFG_PLLDIV$2 000000  
                            _CFG01 0F3B                              ?_main 004A  
__size_of_USBCtrlEPServiceComplete 00B6         LoadBDTandSetUOWN@pBDTEntry 0023  
           __end_of_USBDeviceTasks 160E          ?_USBCtrlEPServiceComplete 004A  
                            _UADDR 000F38                              _USTAT 000F64  
                HIDRxReport@buffer 004A                              _ep0Bi 000408  
                            _ep1Bi 000410                              _ep1Bo 00040C  
                            _sd000 0FB9                              _sd001 0F07  
                            _sd002 0F64               ??_USBCBCheckOtherReq 004A  
                 _usb_device_state 0045                       HIDTxReport@i 004E  
                            tablat 000FF5                  USBSuspend@UIESave 0036  
                            plusw2 000FDB                              status 000FD8  
       __size_of_UnlockAndActivate 002C                  _BufferedDataIndex 0042  
                       _PacketToPC 0060            __CFG_DSWDTOSC$INTOSCREF 000000  
     __size_of_USBStdSetCfgHandler 0060                   __end_of_BootMain 0050  
                  __initialization 1FDC                    ?_BlinkUSBStatus 004A  
                     __end_of_main 1E58                         SignFlash@i 002F  
                   __CFG_OSC$HSPLL 000000              _ProgramMemStopAddress 0019  
                __end_of_HIDInitEP 1EB0                      _USBSoftAttach 1EDA  
                           ??_main 005A          __size_of_InitializeSystem 002A  
                    __activetblptr 000002                    ?_USBDeviceTasks 004A  
                      ?_USBSuspend 004A                   __end_of_UserInit 1F26  
                    SignFlash@pROM 0055                             _EECON1 000FA6  
                           _EECON2 000FA7                             _ANCON0 000F48  
                           _ANCON1 000F49   __size_of_USBDisableWithLongDelay 0016  
                   __CFG_WDTEN$OFF 000000                             _INTCON 000FF2  
                           _TABLAT 000FF5              __size_of_DelayRoutine 0016  
                           _OSCCON 000FD3                     __CFG_WPCFG$OFF 000000  
                           _STKPTR 000FFC                     __CFG_WPDIS$OFF 000000  
       __size_of_LoadBDTandSetUOWN 004C                     __CFG_XINST$OFF 000000  
                  USBDeviceTasks@i 0037                    ??_USBDeviceInit 004C  
                   __CFG_STVREN$ON 000000                       ?_USBCBInitEP 004A  
               __size_of_SignFlash 00F4                             _wCount 0029  
  __size_of_USBStdGetStatusHandler 00A0                     ?_USBSoftAttach 004A  
     __size_of_HIDGetReportHandler 0002         __end_of_WriteFlashSubBlock 1A3E  
             __size_of_HIDRxReport 0076                         ProcessIO@i 0031  
             __size_of_HIDTxReport 006C                 __size_of_ProcessIO 03A0  
                     _DelayRoutine 1F72                       __mediumconst 0000  
                           tblptrh 000FF7                             tblptrl 000FF6  
                           tblptru 000FF8               _DeviceIsSoftDetached 0038  
      __size_of_ResetDeviceCleanly 000C                        _CtrlTrfData 000424  
                       __accesstop 0060            __end_of__initialization 1FDC  
                     __pbssBIGRAMh 04AC                      __end_of_CFG01 0F64  
                    ___rparam_used 000001                        _bTRNIFCount 003F  
                  __CFG_IOL1WAY$ON 000000         UnlockAndActivate@UnlockKey 004A  
             __CFG_WPEND$PAGE_WPFP 000000                __size_of_USBSuspend 0020  
                   __pcstackCOMRAM 004A                      __end_of_sd000 0FBD  
                    __end_of_sd001 0F3B                      __end_of_sd002 0F8A  
                  _active_protocol 0046        __end_of_USBCtrlTrfInHandler 1D6C  
                  __CFG_DSWDTPS$G2 000000   USBCtrlTrfTxService@bytes_to_send 0035  
         ??_USBCtrlTrfSetupHandler 004E                          ?_BootMain 004A  
           _USBStdGetStatusHandler 1906                  __end_of_SignFlash 1452  
                       __pbssBANK0 0060                WriteFlashSubBlock@i 0041  
      __size_of_USBWakeFromSuspend 0014                       _EP0OutOddBuf 00041C  
                __end_of_ProcessIO 135E   __end_of_USBCtrlEPServiceComplete 1906  
         ?_USBProtocolResetHandler 004A            DelayRoutine@DelayAmount 004A  
                  ??_USBSoftAttach 004C                          ?_UserInit 004A  
         __size_of_LowVoltageCheck 003C                         _device_dsc 0FA7  
          USBDeviceTasks@pBDTEntry 0025                   _InitializeSystem 1EB0  
               _USBCheckStdRequest 16DA        __end_of_HIDSetReportHandler 1FEE  
      __end_of_USBCtrlTrfTxService 1850                _USBStdSetCfgHandler 1C1E  
                          _TBLPTRH 000FF7                            _TBLPTRL 000FF6  
                          _TBLPTRU 000FF8                         ??_BootMain 005A  
              ?_USBCheckStdRequest 004A       __size_of_USBStdGetDscHandler 0098  
           __size_of_ClearWatchdog 0004            _USBDisableWithLongDelay 1F5C  
                          _UIEbits 000F36      __size_of_USBCBWakeFromSuspend 000E  
                          _UIRbits 000F62    _FlashSignatureWord_absconstaddr 002006  
                   HIDRxReport@len 004C                   ??_BlinkUSBStatus 004A  
                          _Counter 0027                            __Hparam 0000  
                          _TempBDT 0009               ?_USBStdSetCfgHandler 004A  
      __size_of_USBCheckHIDRequest 00E0                            __Lparam 0000  
                __end_of_hid_rpt01 0FA7               ??_USBCheckStdRequest 004E  
    USBCBInitEP@ConfigurationIndex 004A                   ??_USBDeviceTasks 004E  
                       ??_UserInit 004A                       __psmallconst 0F00  
                          __pcinit 1FDC                            __ramtop 0F00  
             __size_of_USBCBInitEP 0012                            __ptext0 1E24  
                          __ptext2 0FBE                            __ptext3 19A6  
                          __ptext4 1532                            __ptext5 1F88  
                          __ptext6 1FCE                            __ptext7 1F26  
                          __ptext8 1F46                            __ptext9 1D6C  
          __size_of_EraseFlashPage 0058                   __p_BootMain_text 0030  
                     ??_USBSuspend 004A                          _HIDInitEP 1E84  
                   _ctrl_trf_state 003E                      ?_USBCBSuspend 004A  
  __size_of_USBCtrlTrfSetupHandler 0042               end_of_initialization 1FDC  
      __size_of_USBCBCheckOtherReq 0006                 __end_of_USB_SD_Ptr 0F07  
              _HIDGetReportHandler 1FEE    __end_of_USBProtocolResetHandler 1C1E  
                    __Lmediumconst 0000                     HIDTxReport@len 004C  
         ?_USBStdFeatureReqHandler 004A              ??_USBStdSetCfgHandler 004B  
               __end_of_USBSuspend 1F46                            postdec2 000FDD  
                    _ClearWatchdog 0004                            postinc2 000FDE  
         _USBCtrlEPServiceComplete 1850               ?_HIDGetReportHandler 004A  
                        _PORTDbits 000F83                   __CFG_DSBOREN$OFF 000000  
                       ?_HIDInitEP 004A                   __CFG_CPUDIV$OSC1 000000  
                ??_LowVoltageCheck 004A          ??_USBDisableWithLongDelay 004C  
                        _TRISDbits 000F95                     ??_USBCBSuspend 004A  
                     _PacketFromPC 00A1    LoadBDTandSetUOWN@BDTIndexToLoad 004A  
                       main@Button 005A                 _WriteFlashSubBlock 19A6  
                        _USTATSave 0039             _ctrl_trf_session_owner 003D  
                        _USTATbits 000F64                  __CFG_WPFP$PAGE_63 000000  
              ?_WriteFlashSubBlock 004A                   _short_pkt_status 003C  
              __CFG_MSSP7B_EN$MSK7 000000                     ?_ClearWatchdog 004A  
           _USBCtrlTrfSetupHandler 1D6C                      ??_HIDRxReport 004D  
                    ??_HIDTxReport 004D              __end_of_USBDeviceInit 1FBE  
            ??_HIDGetReportHandler 004A                          _BootState 0043  
                 __CFG_DSWDTEN$OFF 000000               ??_WriteFlashSubBlock 004B  
       __end_of_ResetDeviceCleanly 0018                start_initialization 1FDC  
          ?_USBStdGetStatusHandler 004A         __end_of_FlashSignatureWord 2008  
  __end_of_USBStdFeatureReqHandler 16DA                  __size_of_BootMain 0020  
               _uint_delay_counter 002D           __end_of_InitializeSystem 1EDA  
                        _SignFlash 135E                          _ep0BoEven 000400  
              _USBStdGetDscHandler 1A3E                          _ProcessIO 0FBE  
                 __CFG_LPT1OSC$OFF 000000                     _EraseFlashPage 1C7E  
                __size_of_UserInit 0026                __end_of_HIDRxReport 1B4C  
   __end_of_USBStdGetStatusHandler 19A6   __size_of_USBProtocolResetHandler 0066  
              __end_of_HIDTxReport 1BB8                  _USBCheckBusStatus 1FBE  
                      ??_HIDInitEP 004A                        __pbssCOMRAM 0001  
     __size_of_USBCtrlTrfInHandler 004A                   _BootMain_absaddr 000030  
               ?_USBCheckBusStatus 004A                  HIDTxReport@buffer 004A  
             ?_USBStdGetDscHandler 004A         __end_of_USBWakeFromSuspend 1F9C  
              ??_USBCheckBusStatus 004C                      _EP0OutEvenBuf 000414  
                       ?_SignFlash 004A                    ??_ClearWatchdog 004A  
             __end_of_USBCBSuspend 1F5C       __end_of_USBCBWakeFromSuspend 1FDC  
                       ?_ProcessIO 004A             __end_of_EraseFlashPage 1CD6  
                        _hid_rpt01 0F8A              __end_of_USBSoftAttach 1F00  
                        _idle_rate 0047          __end_of_USBCheckBusStatus 1FCE  
     EraseFlashPage@PageNumToErase 004B                        __smallconst 0F00  
             __CFG_RTCOSC$T1OSCREF 000000              ??_USBStdGetDscHandler 004A  
     __size_of_HIDSetReportHandler 0002       __size_of_USBCtrlTrfTxService 00BA  
                         _LATDbits 000F8C         __end_of_USBCheckHIDRequest 1532  
       ??_USBCtrlEPServiceComplete 004B                           _PIE2bits 000FA0  
                         _PIR2bits 000FA1                           _RCONbits 000FD0  
                 __CFG_WDTPS$32768 000000                      ??_USBCBInitEP 004A  
      __size_of_USBCheckStdRequest 00BC                        _HIDRxReport 1AD6  
                  _LowVoltageCheck 1DAE                           _UCONbits 000F65  
                  ?_EraseFlashPage 004B                        _HIDTxReport 1B4C  
 __size_of_USBStdFeatureReqHandler 00CC                      ?_DelayRoutine 004A  
       __end_of_USBCBCheckOtherReq 1FEC                           _BootMain 0030  
      __end_of_USBStdSetCfgHandler 1C7E                     _hid_report_out 00042C  
           USBCBSuspend@OSCCONSave 0040                 __end_of_device_dsc 0FB9  
                      ??_SignFlash 0051                         _EECON1bits 000FA6  
          ?_USBCtrlTrfSetupHandler 004A                           __Hrparam 0000  
                         __Lrparam 0000          WriteFlashSubBlock@Address 0011  
                         _ep0BoOdd 000404                           _SetupPkt 0001  
                   _MaxPageToErase 0044                        ??_ProcessIO 0058  
                         _UserInit 1F00            __size_of_BlinkUSBStatus 003A  
         _EP0OutOddNeedsArmingNext 003B         __size_of_USBCheckBusStatus 0010  
                   _hid_rpt_rx_len 0033            _USBProtocolResetHandler 1BB8  
                   ??_DelayRoutine 004C                __end_of_USBCBInitEP 1FAE  
          __size_of_USBDeviceTasks 00DC                           __ptext10 1850  
                         __ptext11 16DA                           __ptext20 1D22  
                         __ptext12 1C1E                           __ptext21 1796  
                         __ptext13 1906                           __ptext30 1FAE  
                         __ptext22 135E                           __ptext14 1A3E  
                         __ptext31 1FBE                           __ptext23 1C7E  
                         __ptext15 160E                           __ptext40 0004  
                         __ptext32 1EDA                           __ptext24 1E58  
                         __ptext16 1FE6                           __ptext41 1DEA  
                         __ptext33 1BB8                           __ptext25 1DAE  
                         __ptext17 1452                           __ptext34 1F9C  
                         __ptext26 000C                           __ptext18 1FEC  
                         __ptext35 1F00                           __ptext27 1B4C  
                         __ptext19 1FEE                           __ptext36 1E84  
                         __ptext28 1AD6                           __ptext37 1CD6  
                         __ptext29 1EB0                           __ptext38 1F5C  
                         __ptext39 1F72               _USBCBWakeFromSuspend 1FCE  
               _ResetDeviceCleanly 000C     __end_of_USBCtrlTrfSetupHandler 1DAE  
                    __size_of_main 0034              __size_of_USBCBSuspend 0016  
          __end_of_LowVoltageCheck 1DEA                  ?_InitializeSystem 004A  
      __end_of_HIDGetReportHandler 1FF0                _USBCtrlTrfInHandler 1D22  
               ??_InitializeSystem 004C                ?_ResetDeviceCleanly 004A  
               _FlashSignatureWord 2006                           _usb_stat 003A  
      __p_FlashSignatureWord_const 2006                  _ProgrammedPointer 0015  
         ?_USBDisableWithLongDelay 004A                      _hid_report_in 00046C  
      __size_of_WriteFlashSubBlock 0098                        _OSCTUNEbits 000F9B  
                       _INTCONbits 000FF2               ?_USBCtrlTrfInHandler 004A  
             ??_ResetDeviceCleanly 004C                       _USBCBSuspend 1F46  
            ?_USBCBWakeFromSuspend 004A             __size_of_USBDeviceInit 0010  
                _ProgrammingBuffer 04AC                  _UnlockAndActivate 1E58  
               ?_UnlockAndActivate 004A                        _USBCBInitEP 1F9C  
               _USBWakeFromSuspend 1F88          ??_USBProtocolResetHandler 004B  
          _USBStdFeatureReqHandler 160E                _HIDSetReportHandler 1FEC  
              _USBCtrlTrfTxService 1796                ??_UnlockAndActivate 004A  
              ?_USBWakeFromSuspend 004A              ??_USBCtrlTrfInHandler 004A  
                       _WDTCONbits 000FC0               ?_HIDSetReportHandler 004A  
             ?_USBCtrlTrfTxService 004A               ??_USBWakeFromSuspend 004C  
        __end_of_UnlockAndActivate 1E84                   ?_LowVoltageCheck 004A  
             __end_of_DelayRoutine 1F88                   ??_EraseFlashPage 004D  
                   _usb_active_cfg 0049                  _LoadBDTandSetUOWN 1CD6  
